---
triple:          'arm64-apple-darwin'
binary-path:     main
relocations:
  - { offsetInCU: 0x4670, offset: 0x4670, size: 0x8, addend: 0x0, symName: __ZNSt3__17advanceB8ue170006INS_23__forward_list_iteratorIPNS_19__forward_list_nodeIP3CarPvEEEEllvEEvRT_T0_, symObjAddr: 0x4EF0, symBinAddr: 0x100006F00, symSize: 0x38 }
  - { offsetInCU: 0x5921, offset: 0x5921, size: 0x8, addend: 0x0, symName: __ZNSt3__124__put_character_sequenceB8ue170006IcNS_11char_traitsIcEEEERNS_13basic_ostreamIT_T0_EES7_PKS4_m, symObjAddr: 0x64A0, symBinAddr: 0x1000084B0, symSize: 0x1F4 }
  - { offsetInCU: 0x98A8, offset: 0x98A8, size: 0x8, addend: 0x0, symName: __ZNSt3__17getlineB8ue170006IcNS_11char_traitsIcEENS_9allocatorIcEEEERNS_13basic_istreamIT_T0_EES9_RNS_12basic_stringIS6_S7_T1_EE, symObjAddr: 0x10B4, symBinAddr: 0x1000030C4, symSize: 0x5C }
  - { offsetInCU: 0x9D29, offset: 0x9D29, size: 0x8, addend: 0x0, symName: __ZNSt3__17getlineB8ue170006IcNS_11char_traitsIcEENS_9allocatorIcEEEERNS_13basic_istreamIT_T0_EES9_RNS_12basic_stringIS6_S7_T1_EES6_, symObjAddr: 0x132C, symBinAddr: 0x10000333C, symSize: 0x234 }
  - { offsetInCU: 0x9DF2, offset: 0x9DF2, size: 0x8, addend: 0x0, symName: __ZNSt3__1lsB8ue170006INS_11char_traitsIcEEEERNS_13basic_ostreamIcT_EES6_PKc, symObjAddr: 0x1790, symBinAddr: 0x1000037A0, symSize: 0x48 }
  - { offsetInCU: 0x9E38, offset: 0x9E38, size: 0x8, addend: 0x0, symName: __ZNSt3__14endlB8ue170006IcNS_11char_traitsIcEEEERNS_13basic_ostreamIT_T0_EES7_, symObjAddr: 0x1804, symBinAddr: 0x100003814, symSize: 0x58 }
  - { offsetInCU: 0x9E78, offset: 0x9E78, size: 0x8, addend: 0x0, symName: __ZNSt3__1rsB8ue170006IcNS_11char_traitsIcEENS_9allocatorIcEEEERNS_13basic_istreamIT_T0_EES9_RNS_12basic_stringIS6_S7_T1_EE, symObjAddr: 0x1AC8, symBinAddr: 0x100003AD8, symSize: 0x314 }
  - { offsetInCU: 0x9F45, offset: 0x9F45, size: 0x8, addend: 0x0, symName: __ZNSt3__1lsB8ue170006IcNS_11char_traitsIcEENS_9allocatorIcEEEERNS_13basic_ostreamIT_T0_EES9_RKNS_12basic_stringIS6_S7_T1_EE, symObjAddr: 0x27E0, symBinAddr: 0x1000047F0, symSize: 0x4C }
  - { offsetInCU: 0x9F9D, offset: 0x9F9D, size: 0x8, addend: 0x0, symName: __ZNSt3__1rsB8ue170006IcNS_11char_traitsIcEEEERNS_13basic_istreamIT_T0_EES7_RS4_, symObjAddr: 0x2ED4, symBinAddr: 0x100004EE4, symSize: 0x18C }
  - { offsetInCU: 0xA01F, offset: 0xA01F, size: 0x8, addend: 0x0, symName: __ZNSt3__1neB8ue170006ERKNS_23__forward_list_iteratorIPNS_19__forward_list_nodeIP3CarPvEEEES9_, symObjAddr: 0x30C0, symBinAddr: 0x1000050D0, symSize: 0x34 }
  - { offsetInCU: 0xA05C, offset: 0xA05C, size: 0x8, addend: 0x0, symName: __ZNSt3__1neB8ue170006ERKNS_23__forward_list_iteratorIPNS_19__forward_list_nodeIP8CustomerPvEEEES9_, symObjAddr: 0x31E4, symBinAddr: 0x1000051F4, symSize: 0x34 }
  - { offsetInCU: 0xA0A4, offset: 0xA0A4, size: 0x8, addend: 0x0, symName: __ZNSt3__1neB8ue170006ERKNS_29__forward_list_const_iteratorIPNS_19__forward_list_nodeIP8CustomerPvEEEES9_, symObjAddr: 0x33D0, symBinAddr: 0x1000053E0, symSize: 0x34 }
  - { offsetInCU: 0xA0E1, offset: 0xA0E1, size: 0x8, addend: 0x0, symName: __ZNSt3__1eqB8ue170006INS_9allocatorIcEEEEbRKNS_12basic_stringIcNS_11char_traitsIcEET_EES9_, symObjAddr: 0x342C, symBinAddr: 0x10000543C, symSize: 0x148 }
  - { offsetInCU: 0xA154, offset: 0xA154, size: 0x8, addend: 0x0, symName: __ZNSt3__1neB8ue170006ERKNS_29__forward_list_const_iteratorIPNS_19__forward_list_nodeIP3CarPvEEEES9_, symObjAddr: 0x3610, symBinAddr: 0x100005620, symSize: 0x34 }
  - { offsetInCU: 0xA191, offset: 0xA191, size: 0x8, addend: 0x0, symName: __ZNSt3__1lsB8ue170006IcNS_11char_traitsIcEEEERNS_13basic_ostreamIT_T0_EES7_RKNS_8__iom_t6E, symObjAddr: 0x36A8, symBinAddr: 0x1000056B8, symSize: 0x40 }
  - { offsetInCU: 0xA1E0, offset: 0xA1E0, size: 0x8, addend: 0x0, symName: __ZNSt3__14leftB8ue170006ERNS_8ios_baseE, symObjAddr: 0x3728, symBinAddr: 0x100005738, symSize: 0x30 }
  - { offsetInCU: 0xA20E, offset: 0xA20E, size: 0x8, addend: 0x0, symName: __ZNSt3__14setwB8ue170006Ei, symObjAddr: 0x3758, symBinAddr: 0x100005768, symSize: 0x2C }
  - { offsetInCU: 0xA7A3, offset: 0xA7A3, size: 0x8, addend: 0x0, symName: __ZNSt3__130__libcpp_is_constant_evaluatedB8ue170006Ev, symObjAddr: 0x3F3C, symBinAddr: 0x100005F4C, symSize: 0xC }
  - { offsetInCU: 0xA7C0, offset: 0xA7C0, size: 0x8, addend: 0x0, symName: __ZNSt3__117__libcpp_allocateB8ue170006Emm, symObjAddr: 0x3F48, symBinAddr: 0x100005F58, symSize: 0x28 }
  - { offsetInCU: 0xA7FD, offset: 0xA7FD, size: 0x8, addend: 0x0, symName: __ZNSt3__121__libcpp_operator_newB8ue170006IJmEEEPvDpT_, symObjAddr: 0x3F90, symBinAddr: 0x100005FA0, symSize: 0x24 }
  - { offsetInCU: 0xA869, offset: 0xA869, size: 0x8, addend: 0x0, symName: __ZNSt3__119__libcpp_deallocateB8ue170006EPvmm, symObjAddr: 0x44F0, symBinAddr: 0x100006500, symSize: 0x30 }
  - { offsetInCU: 0xA8B1, offset: 0xA8B1, size: 0x8, addend: 0x0, symName: __ZNSt3__127__do_deallocate_handle_sizeB8ue170006IJEEEvPvmDpT_, symObjAddr: 0x4520, symBinAddr: 0x100006530, symSize: 0x28 }
  - { offsetInCU: 0xA8EF, offset: 0xA8EF, size: 0x8, addend: 0x0, symName: __ZNSt3__124__libcpp_operator_deleteB8ue170006IJPvEEEvDpT_, symObjAddr: 0x4548, symBinAddr: 0x100006558, symSize: 0x24 }
  - { offsetInCU: 0xA924, offset: 0xA924, size: 0x8, addend: 0x0, symName: __ZNSt3__14nextB8ue170006INS_23__forward_list_iteratorIPNS_19__forward_list_nodeIP3CarPvEEEEEENS_9enable_ifIXsr29__has_input_iterator_categoryIT_EE5valueESA_E4typeESA_NS_15iterator_traitsISA_E15difference_typeE, symObjAddr: 0x4938, symBinAddr: 0x100006948, symSize: 0x3C }
  - { offsetInCU: 0xA967, offset: 0xA967, size: 0x8, addend: 0x0, symName: __ZNSt3__1eqB8ue170006ERKNS_23__forward_list_iteratorIPNS_19__forward_list_nodeIP3CarPvEEEES9_, symObjAddr: 0x4AD0, symBinAddr: 0x100006AE0, symSize: 0x30 }
  - { offsetInCU: 0xA9D7, offset: 0xA9D7, size: 0x8, addend: 0x0, symName: __ZNSt3__121__convert_to_integralB8ue170006El, symObjAddr: 0x4F28, symBinAddr: 0x100006F38, symSize: 0x14 }
  - { offsetInCU: 0xAA03, offset: 0xAA03, size: 0x8, addend: 0x0, symName: __ZNSt3__19__advanceB8ue170006INS_23__forward_list_iteratorIPNS_19__forward_list_nodeIP3CarPvEEEEEEvRT_NS_15iterator_traitsIS9_E15difference_typeENS_18input_iterator_tagE, symObjAddr: 0x4F3C, symBinAddr: 0x100006F4C, symSize: 0x54 }
  - { offsetInCU: 0xAA4C, offset: 0xAA4C, size: 0x8, addend: 0x0, symName: __ZNSt3__1neB8ue170006ERKNS_29__forward_list_const_iteratorIPNS_19__forward_list_nodeI3CarPvEEEES8_, symObjAddr: 0x5040, symBinAddr: 0x100007050, symSize: 0x34 }
  - { offsetInCU: 0xAA89, offset: 0xAA89, size: 0x8, addend: 0x0, symName: __ZNSt3__1eqB8ue170006ERKNS_29__forward_list_const_iteratorIPNS_19__forward_list_nodeI3CarPvEEEES8_, symObjAddr: 0x522C, symBinAddr: 0x10000723C, symSize: 0x30 }
  - { offsetInCU: 0xB13E, offset: 0xB13E, size: 0x8, addend: 0x0, symName: __ZNSt3__116__pad_and_outputB8ue170006IcNS_11char_traitsIcEEEENS_19ostreambuf_iteratorIT_T0_EES6_PKS4_S8_S8_RNS_8ios_baseES4_, symObjAddr: 0x66F8, symBinAddr: 0x100008708, symSize: 0x248 }
  - { offsetInCU: 0xB20D, offset: 0xB20D, size: 0x8, addend: 0x0, symName: __ZNSt3__112__to_addressB8ue170006IKcEEPT_S3_, symObjAddr: 0x6C68, symBinAddr: 0x100008C78, symSize: 0x14 }
  - { offsetInCU: 0xB275, offset: 0xB275, size: 0x8, addend: 0x0, symName: __ZNSt3__19use_facetB8ue170006INS_5ctypeIcEEEERKT_RKNS_6localeE, symObjAddr: 0x6F40, symBinAddr: 0x100008F50, symSize: 0x2C }
  - { offsetInCU: 0xB653, offset: 0xB653, size: 0x8, addend: 0x0, symName: __ZNSt3__118__constexpr_strlenB8ue170006EPKc, symObjAddr: 0x6FD8, symBinAddr: 0x100008FE8, symSize: 0x24 }
  - { offsetInCU: 0xB67F, offset: 0xB67F, size: 0x8, addend: 0x0, symName: __ZNSt3__1eqB8ue170006ERKNS_29__forward_list_const_iteratorIPNS_19__forward_list_nodeIP3CarPvEEEES9_, symObjAddr: 0x7150, symBinAddr: 0x100009160, symSize: 0x30 }
  - { offsetInCU: 0xBAF2, offset: 0xBAF2, size: 0x8, addend: 0x0, symName: __ZNSt3__1eqB8ue170006ERKNS_23__forward_list_iteratorIPNS_19__forward_list_nodeIP8CustomerPvEEEES9_, symObjAddr: 0x8490, symBinAddr: 0x10000A4A0, symSize: 0x30 }
  - { offsetInCU: 0xBB2F, offset: 0xBB2F, size: 0x8, addend: 0x0, symName: __ZNSt3__1eqB8ue170006ERKNS_29__forward_list_const_iteratorIPNS_19__forward_list_nodeIP8CustomerPvEEEES9_, symObjAddr: 0x8598, symBinAddr: 0x10000A5A8, symSize: 0x30 }
  - { offsetInCU: 0xC039, offset: 0xC039, size: 0x8, addend: 0x0, symName: __ZSt28__throw_bad_array_new_lengthB8ue170006v, symObjAddr: 0x3F08, symBinAddr: 0x100005F18, symSize: 0x34 }
  - { offsetInCU: 0xED09, offset: 0xED09, size: 0x8, addend: 0x0, symName: _main, symObjAddr: 0x0, symBinAddr: 0x100002010, symSize: 0xE6C }
  - { offsetInCU: 0xEF40, offset: 0xEF40, size: 0x8, addend: 0x0, symName: __ZNSt3__112forward_listIP3CarNS_9allocatorIS2_EEEC1B8ue170006Ev, symObjAddr: 0xE88, symBinAddr: 0x100002E98, symSize: 0x2C }
  - { offsetInCU: 0xEF6A, offset: 0xEF6A, size: 0x8, addend: 0x0, symName: __ZNSt3__112forward_listIP8CustomerNS_9allocatorIS2_EEEC1B8ue170006Ev, symObjAddr: 0xEB4, symBinAddr: 0x100002EC4, symSize: 0x2C }
  - { offsetInCU: 0xF0B5, offset: 0xF0B5, size: 0x8, addend: 0x0, symName: __ZNSt3__114basic_ifstreamIcNS_11char_traitsIcEEEC1EPKcj, symObjAddr: 0xEE0, symBinAddr: 0x100002EF0, symSize: 0x17C }
  - { offsetInCU: 0xF0FF, offset: 0xF0FF, size: 0x8, addend: 0x0, symName: __ZNKSt3__114basic_ifstreamIcNS_11char_traitsIcEEE7is_openEv, symObjAddr: 0x105C, symBinAddr: 0x10000306C, symSize: 0x2C }
  - { offsetInCU: 0xF127, offset: 0xF127, size: 0x8, addend: 0x0, symName: __ZNSt3__112basic_stringIcNS_11char_traitsIcEENS_9allocatorIcEEEC1B8ue170006Ev, symObjAddr: 0x1088, symBinAddr: 0x100003098, symSize: 0x2C }
  - { offsetInCU: 0xF151, offset: 0xF151, size: 0x8, addend: 0x0, symName: __ZNKSt3__19basic_iosIcNS_11char_traitsIcEEEcvPvB8ue170006Ev, symObjAddr: 0x1110, symBinAddr: 0x100003120, symSize: 0x4C }
  - { offsetInCU: 0xF177, offset: 0xF177, size: 0x8, addend: 0x0, symName: __ZNKSt3__112basic_stringIcNS_11char_traitsIcEENS_9allocatorIcEEE5emptyB8ue170006Ev, symObjAddr: 0x115C, symBinAddr: 0x10000316C, symSize: 0x30 }
  - { offsetInCU: 0xF19D, offset: 0xF19D, size: 0x8, addend: 0x0, symName: __ZNSt3__112basic_stringIcNS_11char_traitsIcEENS_9allocatorIcEEEixB8ue170006Em, symObjAddr: 0x118C, symBinAddr: 0x10000319C, symSize: 0x30 }
  - { offsetInCU: 0xF1D2, offset: 0xF1D2, size: 0x8, addend: 0x0, symName: __ZNKSt3__112basic_stringIcNS_11char_traitsIcEENS_9allocatorIcEEE4sizeB8ue170006Ev, symObjAddr: 0x11BC, symBinAddr: 0x1000031CC, symSize: 0x54 }
  - { offsetInCU: 0xF257, offset: 0xF257, size: 0x8, addend: 0x0, symName: __ZNSt3__118basic_stringstreamIcNS_11char_traitsIcEENS_9allocatorIcEEEC1B8ue170006ERKNS_12basic_stringIcS2_S4_EEj, symObjAddr: 0x1210, symBinAddr: 0x100003220, symSize: 0x11C }
  - { offsetInCU: 0xF29F, offset: 0xF29F, size: 0x8, addend: 0x0, symName: __ZNSt3__112forward_listIP3CarNS_9allocatorIS2_EEE10push_frontERKS2_, symObjAddr: 0x1560, symBinAddr: 0x100003570, symSize: 0x110 }
  - { offsetInCU: 0xF2F4, offset: 0xF2F4, size: 0x8, addend: 0x0, symName: __ZN3CarC1ERKNSt3__112basic_stringIcNS0_11char_traitsIcEENS0_9allocatorIcEEEES8_S8_S8_, symObjAddr: 0x1670, symBinAddr: 0x100003680, symSize: 0x4C }
  - { offsetInCU: 0xF35B, offset: 0xF35B, size: 0x8, addend: 0x0, symName: __ZNSt3__118basic_stringstreamIcNS_11char_traitsIcEENS_9allocatorIcEEED1Ev, symObjAddr: 0x16C8, symBinAddr: 0x1000036D8, symSize: 0x70 }
  - { offsetInCU: 0xF388, offset: 0xF388, size: 0x8, addend: 0x0, symName: __ZNSt3__114basic_ifstreamIcNS_11char_traitsIcEEE5closeEv, symObjAddr: 0x1738, symBinAddr: 0x100003748, symSize: 0x58 }
  - { offsetInCU: 0xF3B0, offset: 0xF3B0, size: 0x8, addend: 0x0, symName: __ZNSt3__113basic_ostreamIcNS_11char_traitsIcEEElsB8ue170006EPFRS3_S4_E, symObjAddr: 0x17D8, symBinAddr: 0x1000037E8, symSize: 0x2C }
  - { offsetInCU: 0xF3E3, offset: 0xF3E3, size: 0x8, addend: 0x0, symName: __Z12printCarListRKNSt3__112forward_listIP3CarNS_9allocatorIS2_EEEE, symObjAddr: 0x185C, symBinAddr: 0x10000386C, symSize: 0x238 }
  - { offsetInCU: 0xF462, offset: 0xF462, size: 0x8, addend: 0x0, symName: __ZNKSt3__112forward_listIP8CustomerNS_9allocatorIS2_EEE5emptyB8ue170006Ev, symObjAddr: 0x1A94, symBinAddr: 0x100003AA4, symSize: 0x34 }
  - { offsetInCU: 0xF487, offset: 0xF487, size: 0x8, addend: 0x0, symName: __Z12findCustomerRKNSt3__112forward_listIP8CustomerNS_9allocatorIS2_EEEERKNS_12basic_stringIcNS_11char_traitsIcEENS3_IcEEEE, symObjAddr: 0x1DDC, symBinAddr: 0x100003DEC, symSize: 0xC4 }
  - { offsetInCU: 0xF518, offset: 0xF518, size: 0x8, addend: 0x0, symName: __Z9chooseCarRKNSt3__112forward_listIP3CarNS_9allocatorIS2_EEEE, symObjAddr: 0x1EA0, symBinAddr: 0x100003EB0, symSize: 0x700 }
  - { offsetInCU: 0xF6B5, offset: 0xF6B5, size: 0x8, addend: 0x0, symName: __ZN8Customer8rentACarEP3Car, symObjAddr: 0x25A0, symBinAddr: 0x1000045B0, symSize: 0x94 }
  - { offsetInCU: 0xF6E9, offset: 0xF6E9, size: 0x8, addend: 0x0, symName: __ZN8Customer15returnRentedCarEv, symObjAddr: 0x2634, symBinAddr: 0x100004644, symSize: 0x1AC }
  - { offsetInCU: 0xF775, offset: 0xF775, size: 0x8, addend: 0x0, symName: __ZNKSt3__112forward_listIP3CarNS_9allocatorIS2_EEE5emptyB8ue170006Ev, symObjAddr: 0x282C, symBinAddr: 0x10000483C, symSize: 0x34 }
  - { offsetInCU: 0xF79B, offset: 0xF79B, size: 0x8, addend: 0x0, symName: __ZNK8Customer13rentedCarListEv, symObjAddr: 0x2860, symBinAddr: 0x100004870, symSize: 0x230 }
  - { offsetInCU: 0xF814, offset: 0xF814, size: 0x8, addend: 0x0, symName: __ZNKSt3__112forward_listI3CarNS_9allocatorIS1_EEE5emptyB8ue170006Ev, symObjAddr: 0x2A90, symBinAddr: 0x100004AA0, symSize: 0x34 }
  - { offsetInCU: 0xF83A, offset: 0xF83A, size: 0x8, addend: 0x0, symName: __ZNK8Customer17rentalHistoryListEv, symObjAddr: 0x2AC4, symBinAddr: 0x100004AD4, symSize: 0x22C }
  - { offsetInCU: 0xF8B2, offset: 0xF8B2, size: 0x8, addend: 0x0, symName: __Z11addCustomerRNSt3__112forward_listIP8CustomerNS_9allocatorIS2_EEEE, symObjAddr: 0x2CF0, symBinAddr: 0x100004D00, symSize: 0x134 }
  - { offsetInCU: 0xF8FA, offset: 0xF8FA, size: 0x8, addend: 0x0, symName: __Z17printCustomerListRKNSt3__112forward_listIP8CustomerNS_9allocatorIS2_EEEE, symObjAddr: 0x2E24, symBinAddr: 0x100004E34, symSize: 0xB0 }
  - { offsetInCU: 0xF979, offset: 0xF979, size: 0x8, addend: 0x0, symName: __ZNSt3__112forward_listIP3CarNS_9allocatorIS2_EEE5beginB8ue170006Ev, symObjAddr: 0x3060, symBinAddr: 0x100005070, symSize: 0x34 }
  - { offsetInCU: 0xF99F, offset: 0xF99F, size: 0x8, addend: 0x0, symName: __ZNSt3__112forward_listIP3CarNS_9allocatorIS2_EEE3endB8ue170006Ev, symObjAddr: 0x3094, symBinAddr: 0x1000050A4, symSize: 0x2C }
  - { offsetInCU: 0xF9C5, offset: 0xF9C5, size: 0x8, addend: 0x0, symName: __ZNKSt3__123__forward_list_iteratorIPNS_19__forward_list_nodeIP3CarPvEEEdeB8ue170006Ev, symObjAddr: 0x30F4, symBinAddr: 0x100005104, symSize: 0x28 }
  - { offsetInCU: 0xF9EB, offset: 0xF9EB, size: 0x8, addend: 0x0, symName: __ZN3CarD1Ev, symObjAddr: 0x311C, symBinAddr: 0x10000512C, symSize: 0x2C }
  - { offsetInCU: 0xFA17, offset: 0xFA17, size: 0x8, addend: 0x0, symName: __ZNSt3__123__forward_list_iteratorIPNS_19__forward_list_nodeIP3CarPvEEEppB8ue170006Ev, symObjAddr: 0x3148, symBinAddr: 0x100005158, symSize: 0x3C }
  - { offsetInCU: 0xFA3D, offset: 0xFA3D, size: 0x8, addend: 0x0, symName: __ZNSt3__112forward_listIP8CustomerNS_9allocatorIS2_EEE5beginB8ue170006Ev, symObjAddr: 0x3184, symBinAddr: 0x100005194, symSize: 0x34 }
  - { offsetInCU: 0xFA63, offset: 0xFA63, size: 0x8, addend: 0x0, symName: __ZNSt3__112forward_listIP8CustomerNS_9allocatorIS2_EEE3endB8ue170006Ev, symObjAddr: 0x31B8, symBinAddr: 0x1000051C8, symSize: 0x2C }
  - { offsetInCU: 0xFA89, offset: 0xFA89, size: 0x8, addend: 0x0, symName: __ZNKSt3__123__forward_list_iteratorIPNS_19__forward_list_nodeIP8CustomerPvEEEdeB8ue170006Ev, symObjAddr: 0x3218, symBinAddr: 0x100005228, symSize: 0x28 }
  - { offsetInCU: 0xFAAF, offset: 0xFAAF, size: 0x8, addend: 0x0, symName: __ZN8CustomerD1Ev, symObjAddr: 0x3240, symBinAddr: 0x100005250, symSize: 0x2C }
  - { offsetInCU: 0xFADB, offset: 0xFADB, size: 0x8, addend: 0x0, symName: __ZNSt3__123__forward_list_iteratorIPNS_19__forward_list_nodeIP8CustomerPvEEEppB8ue170006Ev, symObjAddr: 0x326C, symBinAddr: 0x10000527C, symSize: 0x3C }
  - { offsetInCU: 0xFB06, offset: 0xFB06, size: 0x8, addend: 0x0, symName: __ZNSt3__114basic_ifstreamIcNS_11char_traitsIcEEED1Ev, symObjAddr: 0x32A8, symBinAddr: 0x1000052B8, symSize: 0x70 }
  - { offsetInCU: 0xFB33, offset: 0xFB33, size: 0x8, addend: 0x0, symName: __ZNSt3__112forward_listIP8CustomerNS_9allocatorIS2_EEED1Ev, symObjAddr: 0x3318, symBinAddr: 0x100005328, symSize: 0x2C }
  - { offsetInCU: 0xFB60, offset: 0xFB60, size: 0x8, addend: 0x0, symName: __ZNSt3__112forward_listIP3CarNS_9allocatorIS2_EEED1Ev, symObjAddr: 0x3344, symBinAddr: 0x100005354, symSize: 0x2C }
  - { offsetInCU: 0xFB8D, offset: 0xFB8D, size: 0x8, addend: 0x0, symName: __ZNKSt3__112forward_listIP8CustomerNS_9allocatorIS2_EEE5beginB8ue170006Ev, symObjAddr: 0x3370, symBinAddr: 0x100005380, symSize: 0x34 }
  - { offsetInCU: 0xFBB3, offset: 0xFBB3, size: 0x8, addend: 0x0, symName: __ZNKSt3__112forward_listIP8CustomerNS_9allocatorIS2_EEE3endB8ue170006Ev, symObjAddr: 0x33A4, symBinAddr: 0x1000053B4, symSize: 0x2C }
  - { offsetInCU: 0xFBD9, offset: 0xFBD9, size: 0x8, addend: 0x0, symName: __ZNKSt3__129__forward_list_const_iteratorIPNS_19__forward_list_nodeIP8CustomerPvEEEdeB8ue170006Ev, symObjAddr: 0x3404, symBinAddr: 0x100005414, symSize: 0x28 }
  - { offsetInCU: 0xFBFF, offset: 0xFBFF, size: 0x8, addend: 0x0, symName: __ZNSt3__129__forward_list_const_iteratorIPNS_19__forward_list_nodeIP8CustomerPvEEEppB8ue170006Ev, symObjAddr: 0x3574, symBinAddr: 0x100005584, symSize: 0x3C }
  - { offsetInCU: 0xFC25, offset: 0xFC25, size: 0x8, addend: 0x0, symName: __ZNKSt3__112forward_listIP3CarNS_9allocatorIS2_EEE5beginB8ue170006Ev, symObjAddr: 0x35B0, symBinAddr: 0x1000055C0, symSize: 0x34 }
  - { offsetInCU: 0xFC4B, offset: 0xFC4B, size: 0x8, addend: 0x0, symName: __ZNKSt3__112forward_listIP3CarNS_9allocatorIS2_EEE3endB8ue170006Ev, symObjAddr: 0x35E4, symBinAddr: 0x1000055F4, symSize: 0x2C }
  - { offsetInCU: 0xFC71, offset: 0xFC71, size: 0x8, addend: 0x0, symName: __ZNKSt3__129__forward_list_const_iteratorIPNS_19__forward_list_nodeIP3CarPvEEEdeB8ue170006Ev, symObjAddr: 0x3644, symBinAddr: 0x100005654, symSize: 0x28 }
  - { offsetInCU: 0xFC97, offset: 0xFC97, size: 0x8, addend: 0x0, symName: __ZNSt3__129__forward_list_const_iteratorIPNS_19__forward_list_nodeIP3CarPvEEEppB8ue170006Ev, symObjAddr: 0x366C, symBinAddr: 0x10000567C, symSize: 0x3C }
  - { offsetInCU: 0xFCBD, offset: 0xFCBD, size: 0x8, addend: 0x0, symName: __ZNSt3__113basic_ostreamIcNS_11char_traitsIcEEElsB8ue170006EPFRNS_8ios_baseES5_E, symObjAddr: 0x36E8, symBinAddr: 0x1000056F8, symSize: 0x40 }
  - { offsetInCU: 0xFCF1, offset: 0xFCF1, size: 0x8, addend: 0x0, symName: __ZN8CustomerC1ERKNSt3__112basic_stringIcNS0_11char_traitsIcEENS0_9allocatorIcEEEE, symObjAddr: 0x3784, symBinAddr: 0x100005794, symSize: 0x34 }
  - { offsetInCU: 0xFD29, offset: 0xFD29, size: 0x8, addend: 0x0, symName: __ZNSt3__112forward_listIP8CustomerNS_9allocatorIS2_EEE10push_frontERKS2_, symObjAddr: 0x37B8, symBinAddr: 0x1000057C8, symSize: 0x110 }
  - { offsetInCU: 0xFD7E, offset: 0xFD7E, size: 0x8, addend: 0x0, symName: __ZN3CarC2ERKNSt3__112basic_stringIcNS0_11char_traitsIcEENS0_9allocatorIcEEEES8_S8_S8_, symObjAddr: 0x38C8, symBinAddr: 0x1000058D8, symSize: 0x100 }
  - { offsetInCU: 0xFDE0, offset: 0xFDE0, size: 0x8, addend: 0x0, symName: __ZNSt3__118basic_stringstreamIcNS_11char_traitsIcEENS_9allocatorIcEEED2Ev, symObjAddr: 0x39C8, symBinAddr: 0x1000059D8, symSize: 0xA4 }
  - { offsetInCU: 0xFE1A, offset: 0xFE1A, size: 0x8, addend: 0x0, symName: __ZThn16_NSt3__118basic_stringstreamIcNS_11char_traitsIcEENS_9allocatorIcEEED1Ev, symObjAddr: 0x3A6C, symBinAddr: 0x100005A7C, symSize: 0x1C }
  - { offsetInCU: 0xFE31, offset: 0xFE31, size: 0x8, addend: 0x0, symName: __ZTv0_n24_NSt3__118basic_stringstreamIcNS_11char_traitsIcEENS_9allocatorIcEEED1Ev, symObjAddr: 0x3A88, symBinAddr: 0x100005A98, symSize: 0x28 }
  - { offsetInCU: 0xFE4D, offset: 0xFE4D, size: 0x8, addend: 0x0, symName: __ZNSt3__115basic_stringbufIcNS_11char_traitsIcEENS_9allocatorIcEEED1Ev, symObjAddr: 0x3AB0, symBinAddr: 0x100005AC0, symSize: 0x2C }
  - { offsetInCU: 0xFE7A, offset: 0xFE7A, size: 0x8, addend: 0x0, symName: __ZNSt3__115basic_stringbufIcNS_11char_traitsIcEENS_9allocatorIcEEED2Ev, symObjAddr: 0x3ADC, symBinAddr: 0x100005AEC, symSize: 0x78 }
  - { offsetInCU: 0xFEA7, offset: 0xFEA7, size: 0x8, addend: 0x0, symName: __ZNSt3__112forward_listI3CarNS_9allocatorIS1_EEE10push_frontERKS1_, symObjAddr: 0x3B54, symBinAddr: 0x100005B64, symSize: 0x110 }
  - { offsetInCU: 0xFEFC, offset: 0xFEFC, size: 0x8, addend: 0x0, symName: __ZNSt3__119__forward_list_baseI3CarNS_9allocatorIS1_EEE7__allocB8ue170006Ev, symObjAddr: 0x3C64, symBinAddr: 0x100005C74, symSize: 0x24 }
  - { offsetInCU: 0xFF27, offset: 0xFF27, size: 0x8, addend: 0x0, symName: __ZNSt3__116allocator_traitsINS_9allocatorINS_19__forward_list_nodeI3CarPvEEEEE8allocateB8ue170006ERS6_m, symObjAddr: 0x3C88, symBinAddr: 0x100005C98, symSize: 0x2C }
  - { offsetInCU: 0xFF5F, offset: 0xFF5F, size: 0x8, addend: 0x0, symName: __ZNSt3__122__allocator_destructorINS_9allocatorINS_19__forward_list_nodeI3CarPvEEEEEC1B8ue170006ERS6_m, symObjAddr: 0x3CB4, symBinAddr: 0x100005CC4, symSize: 0x3C }
  - { offsetInCU: 0x10036, offset: 0x10036, size: 0x8, addend: 0x0, symName: __ZNSt3__110unique_ptrINS_19__forward_list_nodeI3CarPvEENS_22__allocator_destructorINS_9allocatorIS4_EEEEEC1B8ue170006ILb1EvEEPS4_NS_16__dependent_typeINS_27__unique_ptr_deleter_sfinaeIS8_EEXT_EE20__good_rval_ref_typeE, symObjAddr: 0x3CF0, symBinAddr: 0x100005D00, symSize: 0x3C }
  - { offsetInCU: 0x10087, offset: 0x10087, size: 0x8, addend: 0x0, symName: __ZNSt3__116allocator_traitsINS_9allocatorINS_19__forward_list_nodeI3CarPvEEEEE9constructB8ue170006IS3_JRKS3_EvEEvRS6_PT_DpOT0_, symObjAddr: 0x3D2C, symBinAddr: 0x100005D3C, symSize: 0x34 }
  - { offsetInCU: 0x100DE, offset: 0x100DE, size: 0x8, addend: 0x0, symName: __ZNKSt3__110unique_ptrINS_19__forward_list_nodeI3CarPvEENS_22__allocator_destructorINS_9allocatorIS4_EEEEEptB8ue170006Ev, symObjAddr: 0x3D60, symBinAddr: 0x100005D70, symSize: 0x28 }
  - { offsetInCU: 0x10104, offset: 0x10104, size: 0x8, addend: 0x0, symName: __ZNSt3__119__forward_list_baseI3CarNS_9allocatorIS1_EEE14__before_beginB8ue170006Ev, symObjAddr: 0x3D88, symBinAddr: 0x100005D98, symSize: 0x28 }
  - { offsetInCU: 0x1012A, offset: 0x1012A, size: 0x8, addend: 0x0, symName: __ZNSt3__110unique_ptrINS_19__forward_list_nodeI3CarPvEENS_22__allocator_destructorINS_9allocatorIS4_EEEEE7releaseB8ue170006Ev, symObjAddr: 0x3DB0, symBinAddr: 0x100005DC0, symSize: 0x44 }
  - { offsetInCU: 0x1015F, offset: 0x1015F, size: 0x8, addend: 0x0, symName: __ZNSt3__110unique_ptrINS_19__forward_list_nodeI3CarPvEENS_22__allocator_destructorINS_9allocatorIS4_EEEEED1B8ue170006Ev, symObjAddr: 0x3DF4, symBinAddr: 0x100005E04, symSize: 0x2C }
  - { offsetInCU: 0x10189, offset: 0x10189, size: 0x8, addend: 0x0, symName: __ZNSt3__117__compressed_pairINS_20__forward_begin_nodeIPNS_19__forward_list_nodeI3CarPvEEEENS_9allocatorIS5_EEE6secondB8ue170006Ev, symObjAddr: 0x3E20, symBinAddr: 0x100005E30, symSize: 0x24 }
  - { offsetInCU: 0x101AF, offset: 0x101AF, size: 0x8, addend: 0x0, symName: __ZNSt3__122__compressed_pair_elemINS_9allocatorINS_19__forward_list_nodeI3CarPvEEEELi1ELb1EE5__getB8ue170006Ev, symObjAddr: 0x3E44, symBinAddr: 0x100005E54, symSize: 0x14 }
  - { offsetInCU: 0x101D5, offset: 0x101D5, size: 0x8, addend: 0x0, symName: __ZNSt3__19allocatorINS_19__forward_list_nodeI3CarPvEEE8allocateB8ue170006Em, symObjAddr: 0x3E58, symBinAddr: 0x100005E68, symSize: 0x8C }
  - { offsetInCU: 0x10213, offset: 0x10213, size: 0x8, addend: 0x0, symName: __ZNSt3__116allocator_traitsINS_9allocatorINS_19__forward_list_nodeI3CarPvEEEEE8max_sizeB8ue170006IS6_vEEmRKS6_, symObjAddr: 0x3EE4, symBinAddr: 0x100005EF4, symSize: 0x24 }
  - { offsetInCU: 0x10241, offset: 0x10241, size: 0x8, addend: 0x0, symName: __ZNKSt3__19allocatorINS_19__forward_list_nodeI3CarPvEEE8max_sizeB8ue170006Ev, symObjAddr: 0x3F70, symBinAddr: 0x100005F80, symSize: 0x20 }
  - { offsetInCU: 0x10267, offset: 0x10267, size: 0x8, addend: 0x0, symName: __ZNSt3__122__allocator_destructorINS_9allocatorINS_19__forward_list_nodeI3CarPvEEEEEC2B8ue170006ERS6_m, symObjAddr: 0x3FB4, symBinAddr: 0x100005FC4, symSize: 0x2C }
  - { offsetInCU: 0x102AD, offset: 0x102AD, size: 0x8, addend: 0x0, symName: __ZNSt3__110unique_ptrINS_19__forward_list_nodeI3CarPvEENS_22__allocator_destructorINS_9allocatorIS4_EEEEEC2B8ue170006ILb1EvEEPS4_NS_16__dependent_typeINS_27__unique_ptr_deleter_sfinaeIS8_EEXT_EE20__good_rval_ref_typeE, symObjAddr: 0x3FE0, symBinAddr: 0x100005FF0, symSize: 0x5C }
  - { offsetInCU: 0x102FE, offset: 0x102FE, size: 0x8, addend: 0x0, symName: __ZNSt3__117__compressed_pairIPNS_19__forward_list_nodeI3CarPvEENS_22__allocator_destructorINS_9allocatorIS4_EEEEEC1B8ue170006IRS5_S9_EEOT_OT0_, symObjAddr: 0x403C, symBinAddr: 0x10000604C, symSize: 0x3C }
  - { offsetInCU: 0x10356, offset: 0x10356, size: 0x8, addend: 0x0, symName: __ZNSt3__117__compressed_pairIPNS_19__forward_list_nodeI3CarPvEENS_22__allocator_destructorINS_9allocatorIS4_EEEEEC2B8ue170006IRS5_S9_EEOT_OT0_, symObjAddr: 0x4078, symBinAddr: 0x100006088, symSize: 0x48 }
  - { offsetInCU: 0x103AE, offset: 0x103AE, size: 0x8, addend: 0x0, symName: __ZNSt3__122__compressed_pair_elemIPNS_19__forward_list_nodeI3CarPvEELi0ELb0EEC2B8ue170006IRS5_vEEOT_, symObjAddr: 0x40C0, symBinAddr: 0x1000060D0, symSize: 0x24 }
  - { offsetInCU: 0x103F0, offset: 0x103F0, size: 0x8, addend: 0x0, symName: __ZNSt3__122__compressed_pair_elemINS_22__allocator_destructorINS_9allocatorINS_19__forward_list_nodeI3CarPvEEEEEELi1ELb0EEC2B8ue170006IS8_vEEOT_, symObjAddr: 0x40E4, symBinAddr: 0x1000060F4, symSize: 0x24 }
  - { offsetInCU: 0x10432, offset: 0x10432, size: 0x8, addend: 0x0, symName: __ZNSt3__19allocatorINS_19__forward_list_nodeI3CarPvEEE9constructB8ue170006IS2_JRKS2_EEEvPT_DpOT0_, symObjAddr: 0x4108, symBinAddr: 0x100006118, symSize: 0x30 }
  - { offsetInCU: 0x10488, offset: 0x10488, size: 0x8, addend: 0x0, symName: __ZN3CarC1ERKS_, symObjAddr: 0x4138, symBinAddr: 0x100006148, symSize: 0x34 }
  - { offsetInCU: 0x104BD, offset: 0x104BD, size: 0x8, addend: 0x0, symName: __ZN3CarC2ERKS_, symObjAddr: 0x416C, symBinAddr: 0x10000617C, symSize: 0x108 }
  - { offsetInCU: 0x104F2, offset: 0x104F2, size: 0x8, addend: 0x0, symName: __ZNKSt3__117__compressed_pairIPNS_19__forward_list_nodeI3CarPvEENS_22__allocator_destructorINS_9allocatorIS4_EEEEE5firstB8ue170006Ev, symObjAddr: 0x4274, symBinAddr: 0x100006284, symSize: 0x24 }
  - { offsetInCU: 0x10518, offset: 0x10518, size: 0x8, addend: 0x0, symName: __ZNKSt3__122__compressed_pair_elemIPNS_19__forward_list_nodeI3CarPvEELi0ELb0EE5__getB8ue170006Ev, symObjAddr: 0x4298, symBinAddr: 0x1000062A8, symSize: 0x14 }
  - { offsetInCU: 0x1053E, offset: 0x1053E, size: 0x8, addend: 0x0, symName: __ZNSt3__114pointer_traitsIPNS_20__forward_begin_nodeIPNS_19__forward_list_nodeI3CarPvEEEEE10pointer_toB8ue170006ERS7_, symObjAddr: 0x42AC, symBinAddr: 0x1000062BC, symSize: 0x14 }
  - { offsetInCU: 0x10561, offset: 0x10561, size: 0x8, addend: 0x0, symName: __ZNSt3__117__compressed_pairINS_20__forward_begin_nodeIPNS_19__forward_list_nodeI3CarPvEEEENS_9allocatorIS5_EEE5firstB8ue170006Ev, symObjAddr: 0x42C0, symBinAddr: 0x1000062D0, symSize: 0x24 }
  - { offsetInCU: 0x10587, offset: 0x10587, size: 0x8, addend: 0x0, symName: __ZNSt3__122__compressed_pair_elemINS_20__forward_begin_nodeIPNS_19__forward_list_nodeI3CarPvEEEELi0ELb0EE5__getB8ue170006Ev, symObjAddr: 0x42E4, symBinAddr: 0x1000062F4, symSize: 0x14 }
  - { offsetInCU: 0x105AD, offset: 0x105AD, size: 0x8, addend: 0x0, symName: __ZNSt3__117__compressed_pairIPNS_19__forward_list_nodeI3CarPvEENS_22__allocator_destructorINS_9allocatorIS4_EEEEE5firstB8ue170006Ev, symObjAddr: 0x42F8, symBinAddr: 0x100006308, symSize: 0x24 }
  - { offsetInCU: 0x105D3, offset: 0x105D3, size: 0x8, addend: 0x0, symName: __ZNSt3__122__compressed_pair_elemIPNS_19__forward_list_nodeI3CarPvEELi0ELb0EE5__getB8ue170006Ev, symObjAddr: 0x431C, symBinAddr: 0x10000632C, symSize: 0x14 }
  - { offsetInCU: 0x105F9, offset: 0x105F9, size: 0x8, addend: 0x0, symName: __ZNSt3__110unique_ptrINS_19__forward_list_nodeI3CarPvEENS_22__allocator_destructorINS_9allocatorIS4_EEEEED2B8ue170006Ev, symObjAddr: 0x4330, symBinAddr: 0x100006340, symSize: 0x30 }
  - { offsetInCU: 0x10623, offset: 0x10623, size: 0x8, addend: 0x0, symName: __ZNSt3__110unique_ptrINS_19__forward_list_nodeI3CarPvEENS_22__allocator_destructorINS_9allocatorIS4_EEEEE5resetB8ue170006EPS4_, symObjAddr: 0x4360, symBinAddr: 0x100006370, symSize: 0x78 }
  - { offsetInCU: 0x10667, offset: 0x10667, size: 0x8, addend: 0x0, symName: __ZNSt3__117__compressed_pairIPNS_19__forward_list_nodeI3CarPvEENS_22__allocator_destructorINS_9allocatorIS4_EEEEE6secondB8ue170006Ev, symObjAddr: 0x43D8, symBinAddr: 0x1000063E8, symSize: 0x28 }
  - { offsetInCU: 0x1068D, offset: 0x1068D, size: 0x8, addend: 0x0, symName: __ZNSt3__122__allocator_destructorINS_9allocatorINS_19__forward_list_nodeI3CarPvEEEEEclB8ue170006EPS5_, symObjAddr: 0x4400, symBinAddr: 0x100006410, symSize: 0x34 }
  - { offsetInCU: 0x106C1, offset: 0x106C1, size: 0x8, addend: 0x0, symName: __ZNSt3__122__compressed_pair_elemINS_22__allocator_destructorINS_9allocatorINS_19__forward_list_nodeI3CarPvEEEEEELi1ELb0EE5__getB8ue170006Ev, symObjAddr: 0x4434, symBinAddr: 0x100006444, symSize: 0x14 }
  - { offsetInCU: 0x106E7, offset: 0x106E7, size: 0x8, addend: 0x0, symName: __ZNSt3__116allocator_traitsINS_9allocatorINS_19__forward_list_nodeI3CarPvEEEEE10deallocateB8ue170006ERS6_PS5_m, symObjAddr: 0x4448, symBinAddr: 0x100006458, symSize: 0x34 }
  - { offsetInCU: 0x10729, offset: 0x10729, size: 0x8, addend: 0x0, symName: __ZNSt3__19allocatorINS_19__forward_list_nodeI3CarPvEEE10deallocateB8ue170006EPS4_m, symObjAddr: 0x447C, symBinAddr: 0x10000648C, symSize: 0x74 }
  - { offsetInCU: 0x1076B, offset: 0x1076B, size: 0x8, addend: 0x0, symName: __ZN8Customer9returnCarEP3Car, symObjAddr: 0x456C, symBinAddr: 0x10000657C, symSize: 0xD8 }
  - { offsetInCU: 0x1079F, offset: 0x1079F, size: 0x8, addend: 0x0, symName: __ZNSt3__112forward_listIP3CarNS_9allocatorIS2_EEE6removeERKS2_, symObjAddr: 0x4644, symBinAddr: 0x100006654, symSize: 0x244 }
  - { offsetInCU: 0x1082E, offset: 0x1082E, size: 0x8, addend: 0x0, symName: __ZNKSt3__112forward_listIP3CarNS_9allocatorIS2_EEE13get_allocatorB8ue170006Ev, symObjAddr: 0x4888, symBinAddr: 0x100006898, symSize: 0x30 }
  - { offsetInCU: 0x10854, offset: 0x10854, size: 0x8, addend: 0x0, symName: __ZNSt3__112forward_listIP3CarNS_9allocatorIS2_EEEC1ERKS4_, symObjAddr: 0x48B8, symBinAddr: 0x1000068C8, symSize: 0x34 }
  - { offsetInCU: 0x1088F, offset: 0x1088F, size: 0x8, addend: 0x0, symName: __ZNSt3__112forward_listIP3CarNS_9allocatorIS2_EEE12before_beginB8ue170006Ev, symObjAddr: 0x48EC, symBinAddr: 0x1000068FC, symSize: 0x34 }
  - { offsetInCU: 0x108B5, offset: 0x108B5, size: 0x8, addend: 0x0, symName: __ZNKSt3__123__forward_list_iteratorIPNS_19__forward_list_nodeIP3CarPvEEE11__get_beginB8ue170006Ev, symObjAddr: 0x4920, symBinAddr: 0x100006930, symSize: 0x18 }
  - { offsetInCU: 0x108DB, offset: 0x108DB, size: 0x8, addend: 0x0, symName: __ZNSt3__112forward_listIP3CarNS_9allocatorIS2_EEE12splice_afterENS_29__forward_list_const_iteratorIPNS_19__forward_list_nodeIS2_PvEEEERS5_SB_SB_, symObjAddr: 0x4974, symBinAddr: 0x100006984, symSize: 0x128 }
  - { offsetInCU: 0x1095A, offset: 0x1095A, size: 0x8, addend: 0x0, symName: __ZNSt3__129__forward_list_const_iteratorIPNS_19__forward_list_nodeIP3CarPvEEEC1B8ue170006ENS_23__forward_list_iteratorIS6_EE, symObjAddr: 0x4A9C, symBinAddr: 0x100006AAC, symSize: 0x34 }
  - { offsetInCU: 0x10993, offset: 0x10993, size: 0x8, addend: 0x0, symName: __ZNKSt3__119__forward_list_baseIP3CarNS_9allocatorIS2_EEE7__allocB8ue170006Ev, symObjAddr: 0x4B00, symBinAddr: 0x100006B10, symSize: 0x24 }
  - { offsetInCU: 0x109B9, offset: 0x109B9, size: 0x8, addend: 0x0, symName: __ZNSt3__19allocatorIP3CarEC1B8ue170006INS_19__forward_list_nodeIS2_PvEEEERKNS0_IT_EE, symObjAddr: 0x4B24, symBinAddr: 0x100006B34, symSize: 0x34 }
  - { offsetInCU: 0x109F6, offset: 0x109F6, size: 0x8, addend: 0x0, symName: __ZNKSt3__117__compressed_pairINS_20__forward_begin_nodeIPNS_19__forward_list_nodeIP3CarPvEEEENS_9allocatorIS6_EEE6secondB8ue170006Ev, symObjAddr: 0x4B58, symBinAddr: 0x100006B68, symSize: 0x24 }
  - { offsetInCU: 0x10A1C, offset: 0x10A1C, size: 0x8, addend: 0x0, symName: __ZNKSt3__122__compressed_pair_elemINS_9allocatorINS_19__forward_list_nodeIP3CarPvEEEELi1ELb1EE5__getB8ue170006Ev, symObjAddr: 0x4B7C, symBinAddr: 0x100006B8C, symSize: 0x14 }
  - { offsetInCU: 0x10A42, offset: 0x10A42, size: 0x8, addend: 0x0, symName: __ZNSt3__19allocatorIP3CarEC2B8ue170006INS_19__forward_list_nodeIS2_PvEEEERKNS0_IT_EE, symObjAddr: 0x4B90, symBinAddr: 0x100006BA0, symSize: 0x30 }
  - { offsetInCU: 0x10A7F, offset: 0x10A7F, size: 0x8, addend: 0x0, symName: __ZNSt3__116__non_trivial_ifILb1ENS_9allocatorIP3CarEEEC2B8ue170006Ev, symObjAddr: 0x4BC0, symBinAddr: 0x100006BD0, symSize: 0x14 }
  - { offsetInCU: 0x10AA9, offset: 0x10AA9, size: 0x8, addend: 0x0, symName: __ZNSt3__112forward_listIP3CarNS_9allocatorIS2_EEEC2ERKS4_, symObjAddr: 0x4BD4, symBinAddr: 0x100006BE4, symSize: 0x34 }
  - { offsetInCU: 0x10AE4, offset: 0x10AE4, size: 0x8, addend: 0x0, symName: __ZNSt3__119__forward_list_baseIP3CarNS_9allocatorIS2_EEEC2B8ue170006ERKS4_, symObjAddr: 0x4C08, symBinAddr: 0x100006C18, symSize: 0x58 }
  - { offsetInCU: 0x10B1D, offset: 0x10B1D, size: 0x8, addend: 0x0, symName: __ZNSt3__120__forward_begin_nodeIPNS_19__forward_list_nodeIP3CarPvEEEC1B8ue170006Ev, symObjAddr: 0x4C60, symBinAddr: 0x100006C70, symSize: 0x2C }
  - { offsetInCU: 0x10B4C, offset: 0x10B4C, size: 0x8, addend: 0x0, symName: __ZNSt3__19allocatorINS_19__forward_list_nodeIP3CarPvEEEC1B8ue170006IS3_EERKNS0_IT_EE, symObjAddr: 0x4C8C, symBinAddr: 0x100006C9C, symSize: 0x34 }
  - { offsetInCU: 0x10B93, offset: 0x10B93, size: 0x8, addend: 0x0, symName: __ZNSt3__117__compressed_pairINS_20__forward_begin_nodeIPNS_19__forward_list_nodeIP3CarPvEEEENS_9allocatorIS6_EEEC1B8ue170006IS8_SA_EEOT_OT0_, symObjAddr: 0x4CC0, symBinAddr: 0x100006CD0, symSize: 0x3C }
  - { offsetInCU: 0x10BEB, offset: 0x10BEB, size: 0x8, addend: 0x0, symName: __ZNSt3__120__forward_begin_nodeIPNS_19__forward_list_nodeIP3CarPvEEEC2B8ue170006Ev, symObjAddr: 0x4CFC, symBinAddr: 0x100006D0C, symSize: 0x18 }
  - { offsetInCU: 0x10C15, offset: 0x10C15, size: 0x8, addend: 0x0, symName: __ZNSt3__19allocatorINS_19__forward_list_nodeIP3CarPvEEEC2B8ue170006IS3_EERKNS0_IT_EE, symObjAddr: 0x4D14, symBinAddr: 0x100006D24, symSize: 0x30 }
  - { offsetInCU: 0x10C52, offset: 0x10C52, size: 0x8, addend: 0x0, symName: __ZNSt3__116__non_trivial_ifILb1ENS_9allocatorINS_19__forward_list_nodeIP3CarPvEEEEEC2B8ue170006Ev, symObjAddr: 0x4D44, symBinAddr: 0x100006D54, symSize: 0x14 }
  - { offsetInCU: 0x10C7C, offset: 0x10C7C, size: 0x8, addend: 0x0, symName: __ZNSt3__117__compressed_pairINS_20__forward_begin_nodeIPNS_19__forward_list_nodeIP3CarPvEEEENS_9allocatorIS6_EEEC2B8ue170006IS8_SA_EEOT_OT0_, symObjAddr: 0x4D58, symBinAddr: 0x100006D68, symSize: 0x44 }
  - { offsetInCU: 0x10CD4, offset: 0x10CD4, size: 0x8, addend: 0x0, symName: __ZNSt3__122__compressed_pair_elemINS_20__forward_begin_nodeIPNS_19__forward_list_nodeIP3CarPvEEEELi0ELb0EEC2B8ue170006IS8_vEEOT_, symObjAddr: 0x4D9C, symBinAddr: 0x100006DAC, symSize: 0x24 }
  - { offsetInCU: 0x10D16, offset: 0x10D16, size: 0x8, addend: 0x0, symName: __ZNSt3__122__compressed_pair_elemINS_9allocatorINS_19__forward_list_nodeIP3CarPvEEEELi1ELb1EEC2B8ue170006IS7_vEEOT_, symObjAddr: 0x4DC0, symBinAddr: 0x100006DD0, symSize: 0x18 }
  - { offsetInCU: 0x10D58, offset: 0x10D58, size: 0x8, addend: 0x0, symName: __ZNSt3__119__forward_list_baseIP3CarNS_9allocatorIS2_EEE14__before_beginB8ue170006Ev, symObjAddr: 0x4DD8, symBinAddr: 0x100006DE8, symSize: 0x28 }
  - { offsetInCU: 0x10D7E, offset: 0x10D7E, size: 0x8, addend: 0x0, symName: __ZNSt3__123__forward_list_iteratorIPNS_19__forward_list_nodeIP3CarPvEEEC1B8ue170006EPNS_20__forward_begin_nodeIS6_EE, symObjAddr: 0x4E00, symBinAddr: 0x100006E10, symSize: 0x34 }
  - { offsetInCU: 0x10DB7, offset: 0x10DB7, size: 0x8, addend: 0x0, symName: __ZNSt3__114pointer_traitsIPNS_20__forward_begin_nodeIPNS_19__forward_list_nodeIP3CarPvEEEEE10pointer_toB8ue170006ERS8_, symObjAddr: 0x4E34, symBinAddr: 0x100006E44, symSize: 0x14 }
  - { offsetInCU: 0x10DDA, offset: 0x10DDA, size: 0x8, addend: 0x0, symName: __ZNSt3__117__compressed_pairINS_20__forward_begin_nodeIPNS_19__forward_list_nodeIP3CarPvEEEENS_9allocatorIS6_EEE5firstB8ue170006Ev, symObjAddr: 0x4E48, symBinAddr: 0x100006E58, symSize: 0x24 }
  - { offsetInCU: 0x10E00, offset: 0x10E00, size: 0x8, addend: 0x0, symName: __ZNSt3__122__compressed_pair_elemINS_20__forward_begin_nodeIPNS_19__forward_list_nodeIP3CarPvEEEELi0ELb0EE5__getB8ue170006Ev, symObjAddr: 0x4E6C, symBinAddr: 0x100006E7C, symSize: 0x14 }
  - { offsetInCU: 0x10E26, offset: 0x10E26, size: 0x8, addend: 0x0, symName: __ZNSt3__123__forward_list_iteratorIPNS_19__forward_list_nodeIP3CarPvEEEC2B8ue170006EPNS_20__forward_begin_nodeIS6_EE, symObjAddr: 0x4E80, symBinAddr: 0x100006E90, symSize: 0x5C }
  - { offsetInCU: 0x10E5F, offset: 0x10E5F, size: 0x8, addend: 0x0, symName: __ZNSt3__121__forward_node_traitsIPNS_19__forward_list_nodeIP3CarPvEEE14__as_iter_nodeB8ue170006EPNS_20__forward_begin_nodeIS6_EE, symObjAddr: 0x4EDC, symBinAddr: 0x100006EEC, symSize: 0x14 }
  - { offsetInCU: 0x10E83, offset: 0x10E83, size: 0x8, addend: 0x0, symName: __ZNKSt3__129__forward_list_const_iteratorIPNS_19__forward_list_nodeIP3CarPvEEE11__get_beginB8ue170006Ev, symObjAddr: 0x4F90, symBinAddr: 0x100006FA0, symSize: 0x18 }
  - { offsetInCU: 0x10EA9, offset: 0x10EA9, size: 0x8, addend: 0x0, symName: __ZNKSt3__129__forward_list_const_iteratorIPNS_19__forward_list_nodeIP3CarPvEEE25__get_unsafe_node_pointerB8ue170006Ev, symObjAddr: 0x4FA8, symBinAddr: 0x100006FB8, symSize: 0x18 }
  - { offsetInCU: 0x10ECF, offset: 0x10ECF, size: 0x8, addend: 0x0, symName: __ZNSt3__129__forward_list_const_iteratorIPNS_19__forward_list_nodeIP3CarPvEEEC2B8ue170006ENS_23__forward_list_iteratorIS6_EE, symObjAddr: 0x4FC0, symBinAddr: 0x100006FD0, symSize: 0x20 }
  - { offsetInCU: 0x10F08, offset: 0x10F08, size: 0x8, addend: 0x0, symName: __ZNKSt3__112forward_listI3CarNS_9allocatorIS1_EEE5beginB8ue170006Ev, symObjAddr: 0x4FE0, symBinAddr: 0x100006FF0, symSize: 0x34 }
  - { offsetInCU: 0x10F2E, offset: 0x10F2E, size: 0x8, addend: 0x0, symName: __ZNKSt3__112forward_listI3CarNS_9allocatorIS1_EEE3endB8ue170006Ev, symObjAddr: 0x5014, symBinAddr: 0x100007024, symSize: 0x2C }
  - { offsetInCU: 0x10F54, offset: 0x10F54, size: 0x8, addend: 0x0, symName: __ZNKSt3__129__forward_list_const_iteratorIPNS_19__forward_list_nodeI3CarPvEEEdeB8ue170006Ev, symObjAddr: 0x5074, symBinAddr: 0x100007084, symSize: 0x28 }
  - { offsetInCU: 0x10F7A, offset: 0x10F7A, size: 0x8, addend: 0x0, symName: __ZNSt3__129__forward_list_const_iteratorIPNS_19__forward_list_nodeI3CarPvEEEppB8ue170006Ev, symObjAddr: 0x509C, symBinAddr: 0x1000070AC, symSize: 0x3C }
  - { offsetInCU: 0x10FA0, offset: 0x10FA0, size: 0x8, addend: 0x0, symName: __ZNKSt3__119__forward_list_baseI3CarNS_9allocatorIS1_EEE14__before_beginB8ue170006Ev, symObjAddr: 0x50D8, symBinAddr: 0x1000070E8, symSize: 0x28 }
  - { offsetInCU: 0x10FC6, offset: 0x10FC6, size: 0x8, addend: 0x0, symName: __ZNSt3__129__forward_list_const_iteratorIPNS_19__forward_list_nodeI3CarPvEEEC1B8ue170006ES5_, symObjAddr: 0x5100, symBinAddr: 0x100007110, symSize: 0x34 }
  - { offsetInCU: 0x10FFF, offset: 0x10FFF, size: 0x8, addend: 0x0, symName: __ZNKSt3__117__compressed_pairINS_20__forward_begin_nodeIPNS_19__forward_list_nodeI3CarPvEEEENS_9allocatorIS5_EEE5firstB8ue170006Ev, symObjAddr: 0x5134, symBinAddr: 0x100007144, symSize: 0x24 }
  - { offsetInCU: 0x11025, offset: 0x11025, size: 0x8, addend: 0x0, symName: __ZNKSt3__122__compressed_pair_elemINS_20__forward_begin_nodeIPNS_19__forward_list_nodeI3CarPvEEEELi0ELb0EE5__getB8ue170006Ev, symObjAddr: 0x5158, symBinAddr: 0x100007168, symSize: 0x14 }
  - { offsetInCU: 0x1104B, offset: 0x1104B, size: 0x8, addend: 0x0, symName: __ZNSt3__129__forward_list_const_iteratorIPNS_19__forward_list_nodeI3CarPvEEEC2B8ue170006ES5_, symObjAddr: 0x516C, symBinAddr: 0x10000717C, symSize: 0x5C }
  - { offsetInCU: 0x11084, offset: 0x11084, size: 0x8, addend: 0x0, symName: __ZNSt3__121__forward_node_traitsIPNS_19__forward_list_nodeI3CarPvEEE14__as_iter_nodeB8ue170006ES5_, symObjAddr: 0x51C8, symBinAddr: 0x1000071D8, symSize: 0x14 }
  - { offsetInCU: 0x110A8, offset: 0x110A8, size: 0x8, addend: 0x0, symName: __ZNSt3__129__forward_list_const_iteratorIPNS_19__forward_list_nodeI3CarPvEEEC1B8ue170006EDn, symObjAddr: 0x51DC, symBinAddr: 0x1000071EC, symSize: 0x34 }
  - { offsetInCU: 0x110DE, offset: 0x110DE, size: 0x8, addend: 0x0, symName: __ZNSt3__129__forward_list_const_iteratorIPNS_19__forward_list_nodeI3CarPvEEEC2B8ue170006EDn, symObjAddr: 0x5210, symBinAddr: 0x100007220, symSize: 0x1C }
  - { offsetInCU: 0x11114, offset: 0x11114, size: 0x8, addend: 0x0, symName: __ZNKSt3__129__forward_list_const_iteratorIPNS_19__forward_list_nodeI3CarPvEEE25__get_unsafe_node_pointerB8ue170006Ev, symObjAddr: 0x525C, symBinAddr: 0x10000726C, symSize: 0x18 }
  - { offsetInCU: 0x1113A, offset: 0x1113A, size: 0x8, addend: 0x0, symName: __ZN3CarD2Ev, symObjAddr: 0x5274, symBinAddr: 0x100007284, symSize: 0xD4 }
  - { offsetInCU: 0x11166, offset: 0x11166, size: 0x8, addend: 0x0, symName: __ZN8CustomerD2Ev, symObjAddr: 0x5348, symBinAddr: 0x100007358, symSize: 0x98 }
  - { offsetInCU: 0x11192, offset: 0x11192, size: 0x8, addend: 0x0, symName: __ZNSt3__112forward_listI3CarNS_9allocatorIS1_EEED1Ev, symObjAddr: 0x53E0, symBinAddr: 0x1000073F0, symSize: 0x2C }
  - { offsetInCU: 0x111BF, offset: 0x111BF, size: 0x8, addend: 0x0, symName: __ZNSt3__112forward_listI3CarNS_9allocatorIS1_EEED2Ev, symObjAddr: 0x540C, symBinAddr: 0x10000741C, symSize: 0x2C }
  - { offsetInCU: 0x111EC, offset: 0x111EC, size: 0x8, addend: 0x0, symName: __ZNSt3__119__forward_list_baseI3CarNS_9allocatorIS1_EEED2Ev, symObjAddr: 0x5438, symBinAddr: 0x100007448, symSize: 0x2C }
  - { offsetInCU: 0x11218, offset: 0x11218, size: 0x8, addend: 0x0, symName: __ZNSt3__119__forward_list_baseI3CarNS_9allocatorIS1_EEE5clearEv, symObjAddr: 0x5464, symBinAddr: 0x100007474, symSize: 0xB8 }
  - { offsetInCU: 0x11282, offset: 0x11282, size: 0x8, addend: 0x0, symName: __ZNSt3__116allocator_traitsINS_9allocatorINS_19__forward_list_nodeI3CarPvEEEEE7destroyB8ue170006IS3_vvEEvRS6_PT_, symObjAddr: 0x551C, symBinAddr: 0x10000752C, symSize: 0x28 }
  - { offsetInCU: 0x112BD, offset: 0x112BD, size: 0x8, addend: 0x0, symName: __ZNSt3__114basic_ifstreamIcNS_11char_traitsIcEEED2Ev, symObjAddr: 0x5544, symBinAddr: 0x100007554, symSize: 0x9C }
  - { offsetInCU: 0x112F7, offset: 0x112F7, size: 0x8, addend: 0x0, symName: __ZTv0_n24_NSt3__114basic_ifstreamIcNS_11char_traitsIcEEED1Ev, symObjAddr: 0x55E0, symBinAddr: 0x1000075F0, symSize: 0x28 }
  - { offsetInCU: 0x1130E, offset: 0x1130E, size: 0x8, addend: 0x0, symName: __ZNSt3__112forward_listIP8CustomerNS_9allocatorIS2_EEED2Ev, symObjAddr: 0x5608, symBinAddr: 0x100007618, symSize: 0x2C }
  - { offsetInCU: 0x1133B, offset: 0x1133B, size: 0x8, addend: 0x0, symName: __ZNSt3__119__forward_list_baseIP8CustomerNS_9allocatorIS2_EEED2Ev, symObjAddr: 0x5634, symBinAddr: 0x100007644, symSize: 0x2C }
  - { offsetInCU: 0x11367, offset: 0x11367, size: 0x8, addend: 0x0, symName: __ZNSt3__119__forward_list_baseIP8CustomerNS_9allocatorIS2_EEE5clearEv, symObjAddr: 0x5660, symBinAddr: 0x100007670, symSize: 0xB8 }
  - { offsetInCU: 0x113D1, offset: 0x113D1, size: 0x8, addend: 0x0, symName: __ZNSt3__119__forward_list_baseIP8CustomerNS_9allocatorIS2_EEE7__allocB8ue170006Ev, symObjAddr: 0x5718, symBinAddr: 0x100007728, symSize: 0x24 }
  - { offsetInCU: 0x113F7, offset: 0x113F7, size: 0x8, addend: 0x0, symName: __ZNSt3__119__forward_list_baseIP8CustomerNS_9allocatorIS2_EEE14__before_beginB8ue170006Ev, symObjAddr: 0x573C, symBinAddr: 0x10000774C, symSize: 0x28 }
  - { offsetInCU: 0x11422, offset: 0x11422, size: 0x8, addend: 0x0, symName: __ZNSt3__116allocator_traitsINS_9allocatorINS_19__forward_list_nodeIP8CustomerPvEEEEE7destroyB8ue170006IS4_vvEEvRS7_PT_, symObjAddr: 0x5764, symBinAddr: 0x100007774, symSize: 0x14 }
  - { offsetInCU: 0x1145D, offset: 0x1145D, size: 0x8, addend: 0x0, symName: __ZNSt3__116allocator_traitsINS_9allocatorINS_19__forward_list_nodeIP8CustomerPvEEEEE10deallocateB8ue170006ERS7_PS6_m, symObjAddr: 0x5778, symBinAddr: 0x100007788, symSize: 0x34 }
  - { offsetInCU: 0x1149F, offset: 0x1149F, size: 0x8, addend: 0x0, symName: __ZNSt3__117__compressed_pairINS_20__forward_begin_nodeIPNS_19__forward_list_nodeIP8CustomerPvEEEENS_9allocatorIS6_EEE6secondB8ue170006Ev, symObjAddr: 0x57AC, symBinAddr: 0x1000077BC, symSize: 0x24 }
  - { offsetInCU: 0x114C5, offset: 0x114C5, size: 0x8, addend: 0x0, symName: __ZNSt3__122__compressed_pair_elemINS_9allocatorINS_19__forward_list_nodeIP8CustomerPvEEEELi1ELb1EE5__getB8ue170006Ev, symObjAddr: 0x57D0, symBinAddr: 0x1000077E0, symSize: 0x14 }
  - { offsetInCU: 0x114EB, offset: 0x114EB, size: 0x8, addend: 0x0, symName: __ZNSt3__114pointer_traitsIPNS_20__forward_begin_nodeIPNS_19__forward_list_nodeIP8CustomerPvEEEEE10pointer_toB8ue170006ERS8_, symObjAddr: 0x57E4, symBinAddr: 0x1000077F4, symSize: 0x14 }
  - { offsetInCU: 0x1150E, offset: 0x1150E, size: 0x8, addend: 0x0, symName: __ZNSt3__117__compressed_pairINS_20__forward_begin_nodeIPNS_19__forward_list_nodeIP8CustomerPvEEEENS_9allocatorIS6_EEE5firstB8ue170006Ev, symObjAddr: 0x57F8, symBinAddr: 0x100007808, symSize: 0x24 }
  - { offsetInCU: 0x11534, offset: 0x11534, size: 0x8, addend: 0x0, symName: __ZNSt3__122__compressed_pair_elemINS_20__forward_begin_nodeIPNS_19__forward_list_nodeIP8CustomerPvEEEELi0ELb0EE5__getB8ue170006Ev, symObjAddr: 0x581C, symBinAddr: 0x10000782C, symSize: 0x14 }
  - { offsetInCU: 0x1155A, offset: 0x1155A, size: 0x8, addend: 0x0, symName: __ZNSt3__19allocatorINS_19__forward_list_nodeIP8CustomerPvEEE10deallocateB8ue170006EPS5_m, symObjAddr: 0x5830, symBinAddr: 0x100007840, symSize: 0x70 }
  - { offsetInCU: 0x1159C, offset: 0x1159C, size: 0x8, addend: 0x0, symName: __ZNSt3__112forward_listIP3CarNS_9allocatorIS2_EEED2Ev, symObjAddr: 0x58A0, symBinAddr: 0x1000078B0, symSize: 0x2C }
  - { offsetInCU: 0x115C9, offset: 0x115C9, size: 0x8, addend: 0x0, symName: __ZNSt3__119__forward_list_baseIP3CarNS_9allocatorIS2_EEED2Ev, symObjAddr: 0x58CC, symBinAddr: 0x1000078DC, symSize: 0x2C }
  - { offsetInCU: 0x115F5, offset: 0x115F5, size: 0x8, addend: 0x0, symName: __ZNSt3__119__forward_list_baseIP3CarNS_9allocatorIS2_EEE5clearEv, symObjAddr: 0x58F8, symBinAddr: 0x100007908, symSize: 0xB8 }
  - { offsetInCU: 0x1165F, offset: 0x1165F, size: 0x8, addend: 0x0, symName: __ZNSt3__119__forward_list_baseIP3CarNS_9allocatorIS2_EEE7__allocB8ue170006Ev, symObjAddr: 0x59B0, symBinAddr: 0x1000079C0, symSize: 0x24 }
  - { offsetInCU: 0x1168A, offset: 0x1168A, size: 0x8, addend: 0x0, symName: __ZNSt3__116allocator_traitsINS_9allocatorINS_19__forward_list_nodeIP3CarPvEEEEE7destroyB8ue170006IS4_vvEEvRS7_PT_, symObjAddr: 0x59D4, symBinAddr: 0x1000079E4, symSize: 0x14 }
  - { offsetInCU: 0x116C5, offset: 0x116C5, size: 0x8, addend: 0x0, symName: __ZNSt3__116allocator_traitsINS_9allocatorINS_19__forward_list_nodeIP3CarPvEEEEE10deallocateB8ue170006ERS7_PS6_m, symObjAddr: 0x59E8, symBinAddr: 0x1000079F8, symSize: 0x34 }
  - { offsetInCU: 0x11707, offset: 0x11707, size: 0x8, addend: 0x0, symName: __ZNSt3__117__compressed_pairINS_20__forward_begin_nodeIPNS_19__forward_list_nodeIP3CarPvEEEENS_9allocatorIS6_EEE6secondB8ue170006Ev, symObjAddr: 0x5A1C, symBinAddr: 0x100007A2C, symSize: 0x24 }
  - { offsetInCU: 0x1172D, offset: 0x1172D, size: 0x8, addend: 0x0, symName: __ZNSt3__122__compressed_pair_elemINS_9allocatorINS_19__forward_list_nodeIP3CarPvEEEELi1ELb1EE5__getB8ue170006Ev, symObjAddr: 0x5A40, symBinAddr: 0x100007A50, symSize: 0x14 }
  - { offsetInCU: 0x11753, offset: 0x11753, size: 0x8, addend: 0x0, symName: __ZNSt3__19allocatorINS_19__forward_list_nodeIP3CarPvEEE10deallocateB8ue170006EPS5_m, symObjAddr: 0x5A54, symBinAddr: 0x100007A64, symSize: 0x70 }
  - { offsetInCU: 0x11795, offset: 0x11795, size: 0x8, addend: 0x0, symName: __ZNSt3__18ios_base4setfB8ue170006Ejj, symObjAddr: 0x5AC4, symBinAddr: 0x100007AD4, symSize: 0x5C }
  - { offsetInCU: 0x117EA, offset: 0x117EA, size: 0x8, addend: 0x0, symName: __ZNSt3__18ios_base6unsetfB8ue170006Ej, symObjAddr: 0x5B20, symBinAddr: 0x100007B30, symSize: 0x28 }
  - { offsetInCU: 0x11821, offset: 0x11821, size: 0x8, addend: 0x0, symName: __ZNSt3__18__iom_t6C1B8ue170006Ei, symObjAddr: 0x5B48, symBinAddr: 0x100007B58, symSize: 0x34 }
  - { offsetInCU: 0x11859, offset: 0x11859, size: 0x8, addend: 0x0, symName: __ZNSt3__18__iom_t6C2B8ue170006Ei, symObjAddr: 0x5B7C, symBinAddr: 0x100007B8C, symSize: 0x20 }
  - { offsetInCU: 0x11891, offset: 0x11891, size: 0x8, addend: 0x0, symName: __ZN8CustomerC2ERKNSt3__112basic_stringIcNS0_11char_traitsIcEENS0_9allocatorIcEEEE, symObjAddr: 0x5B9C, symBinAddr: 0x100007BAC, symSize: 0xA4 }
  - { offsetInCU: 0x118C9, offset: 0x118C9, size: 0x8, addend: 0x0, symName: __ZNSt3__112forward_listI3CarNS_9allocatorIS1_EEEC1B8ue170006Ev, symObjAddr: 0x5C40, symBinAddr: 0x100007C50, symSize: 0x2C }
  - { offsetInCU: 0x118F3, offset: 0x118F3, size: 0x8, addend: 0x0, symName: __ZNSt3__112forward_listI3CarNS_9allocatorIS1_EEEC2B8ue170006Ev, symObjAddr: 0x5C6C, symBinAddr: 0x100007C7C, symSize: 0x2C }
  - { offsetInCU: 0x1191D, offset: 0x1191D, size: 0x8, addend: 0x0, symName: __ZNSt3__119__forward_list_baseI3CarNS_9allocatorIS1_EEEC2B8ue170006Ev, symObjAddr: 0x5C98, symBinAddr: 0x100007CA8, symSize: 0x44 }
  - { offsetInCU: 0x11947, offset: 0x11947, size: 0x8, addend: 0x0, symName: __ZNSt3__120__forward_begin_nodeIPNS_19__forward_list_nodeI3CarPvEEEC1B8ue170006Ev, symObjAddr: 0x5CDC, symBinAddr: 0x100007CEC, symSize: 0x2C }
  - { offsetInCU: 0x1197B, offset: 0x1197B, size: 0x8, addend: 0x0, symName: __ZNSt3__117__compressed_pairINS_20__forward_begin_nodeIPNS_19__forward_list_nodeI3CarPvEEEENS_9allocatorIS5_EEEC1B8ue170006IS7_NS_18__default_init_tagEEEOT_OT0_, symObjAddr: 0x5D08, symBinAddr: 0x100007D18, symSize: 0x3C }
  - { offsetInCU: 0x119D3, offset: 0x119D3, size: 0x8, addend: 0x0, symName: __ZNSt3__120__forward_begin_nodeIPNS_19__forward_list_nodeI3CarPvEEEC2B8ue170006Ev, symObjAddr: 0x5D44, symBinAddr: 0x100007D54, symSize: 0x18 }
  - { offsetInCU: 0x119FD, offset: 0x119FD, size: 0x8, addend: 0x0, symName: __ZNSt3__117__compressed_pairINS_20__forward_begin_nodeIPNS_19__forward_list_nodeI3CarPvEEEENS_9allocatorIS5_EEEC2B8ue170006IS7_NS_18__default_init_tagEEEOT_OT0_, symObjAddr: 0x5D5C, symBinAddr: 0x100007D6C, symSize: 0x40 }
  - { offsetInCU: 0x11A55, offset: 0x11A55, size: 0x8, addend: 0x0, symName: __ZNSt3__122__compressed_pair_elemINS_20__forward_begin_nodeIPNS_19__forward_list_nodeI3CarPvEEEELi0ELb0EEC2B8ue170006IS7_vEEOT_, symObjAddr: 0x5D9C, symBinAddr: 0x100007DAC, symSize: 0x24 }
  - { offsetInCU: 0x11A97, offset: 0x11A97, size: 0x8, addend: 0x0, symName: __ZNSt3__122__compressed_pair_elemINS_9allocatorINS_19__forward_list_nodeI3CarPvEEEELi1ELb1EEC2B8ue170006ENS_18__default_init_tagE, symObjAddr: 0x5DC0, symBinAddr: 0x100007DD0, symSize: 0x2C }
  - { offsetInCU: 0x11ACB, offset: 0x11ACB, size: 0x8, addend: 0x0, symName: __ZNSt3__19allocatorINS_19__forward_list_nodeI3CarPvEEEC2B8ue170006Ev, symObjAddr: 0x5DEC, symBinAddr: 0x100007DFC, symSize: 0x2C }
  - { offsetInCU: 0x11AF5, offset: 0x11AF5, size: 0x8, addend: 0x0, symName: __ZNSt3__116__non_trivial_ifILb1ENS_9allocatorINS_19__forward_list_nodeI3CarPvEEEEEC2B8ue170006Ev, symObjAddr: 0x5E18, symBinAddr: 0x100007E28, symSize: 0x14 }
  - { offsetInCU: 0x11B1F, offset: 0x11B1F, size: 0x8, addend: 0x0, symName: __ZNSt3__112forward_listIP3CarNS_9allocatorIS2_EEEC2B8ue170006Ev, symObjAddr: 0x5E2C, symBinAddr: 0x100007E3C, symSize: 0x2C }
  - { offsetInCU: 0x11B49, offset: 0x11B49, size: 0x8, addend: 0x0, symName: __ZNSt3__119__forward_list_baseIP3CarNS_9allocatorIS2_EEEC2B8ue170006Ev, symObjAddr: 0x5E58, symBinAddr: 0x100007E68, symSize: 0x44 }
  - { offsetInCU: 0x11B73, offset: 0x11B73, size: 0x8, addend: 0x0, symName: __ZNSt3__117__compressed_pairINS_20__forward_begin_nodeIPNS_19__forward_list_nodeIP3CarPvEEEENS_9allocatorIS6_EEEC1B8ue170006IS8_NS_18__default_init_tagEEEOT_OT0_, symObjAddr: 0x5E9C, symBinAddr: 0x100007EAC, symSize: 0x3C }
  - { offsetInCU: 0x11BCB, offset: 0x11BCB, size: 0x8, addend: 0x0, symName: __ZNSt3__117__compressed_pairINS_20__forward_begin_nodeIPNS_19__forward_list_nodeIP3CarPvEEEENS_9allocatorIS6_EEEC2B8ue170006IS8_NS_18__default_init_tagEEEOT_OT0_, symObjAddr: 0x5ED8, symBinAddr: 0x100007EE8, symSize: 0x40 }
  - { offsetInCU: 0x11C23, offset: 0x11C23, size: 0x8, addend: 0x0, symName: __ZNSt3__122__compressed_pair_elemINS_9allocatorINS_19__forward_list_nodeIP3CarPvEEEELi1ELb1EEC2B8ue170006ENS_18__default_init_tagE, symObjAddr: 0x5F18, symBinAddr: 0x100007F28, symSize: 0x2C }
  - { offsetInCU: 0x11C57, offset: 0x11C57, size: 0x8, addend: 0x0, symName: __ZNSt3__19allocatorINS_19__forward_list_nodeIP3CarPvEEEC2B8ue170006Ev, symObjAddr: 0x5F44, symBinAddr: 0x100007F54, symSize: 0x2C }
  - { offsetInCU: 0x11C81, offset: 0x11C81, size: 0x8, addend: 0x0, symName: __ZNSt3__116allocator_traitsINS_9allocatorINS_19__forward_list_nodeIP3CarPvEEEEE8allocateB8ue170006ERS7_m, symObjAddr: 0x5F70, symBinAddr: 0x100007F80, symSize: 0x2C }
  - { offsetInCU: 0x11CB9, offset: 0x11CB9, size: 0x8, addend: 0x0, symName: __ZNSt3__122__allocator_destructorINS_9allocatorINS_19__forward_list_nodeIP3CarPvEEEEEC1B8ue170006ERS7_m, symObjAddr: 0x5F9C, symBinAddr: 0x100007FAC, symSize: 0x3C }
  - { offsetInCU: 0x11D90, offset: 0x11D90, size: 0x8, addend: 0x0, symName: __ZNSt3__110unique_ptrINS_19__forward_list_nodeIP3CarPvEENS_22__allocator_destructorINS_9allocatorIS5_EEEEEC1B8ue170006ILb1EvEEPS5_NS_16__dependent_typeINS_27__unique_ptr_deleter_sfinaeIS9_EEXT_EE20__good_rval_ref_typeE, symObjAddr: 0x5FD8, symBinAddr: 0x100007FE8, symSize: 0x3C }
  - { offsetInCU: 0x11DE1, offset: 0x11DE1, size: 0x8, addend: 0x0, symName: __ZNSt3__116allocator_traitsINS_9allocatorINS_19__forward_list_nodeIP3CarPvEEEEE9constructB8ue170006IS4_JRKS4_EvEEvRS7_PT_DpOT0_, symObjAddr: 0x6014, symBinAddr: 0x100008024, symSize: 0x34 }
  - { offsetInCU: 0x11E38, offset: 0x11E38, size: 0x8, addend: 0x0, symName: __ZNKSt3__110unique_ptrINS_19__forward_list_nodeIP3CarPvEENS_22__allocator_destructorINS_9allocatorIS5_EEEEEptB8ue170006Ev, symObjAddr: 0x6048, symBinAddr: 0x100008058, symSize: 0x28 }
  - { offsetInCU: 0x11E5E, offset: 0x11E5E, size: 0x8, addend: 0x0, symName: __ZNSt3__110unique_ptrINS_19__forward_list_nodeIP3CarPvEENS_22__allocator_destructorINS_9allocatorIS5_EEEEE7releaseB8ue170006Ev, symObjAddr: 0x6070, symBinAddr: 0x100008080, symSize: 0x44 }
  - { offsetInCU: 0x11E93, offset: 0x11E93, size: 0x8, addend: 0x0, symName: __ZNSt3__110unique_ptrINS_19__forward_list_nodeIP3CarPvEENS_22__allocator_destructorINS_9allocatorIS5_EEEEED1B8ue170006Ev, symObjAddr: 0x60B4, symBinAddr: 0x1000080C4, symSize: 0x2C }
  - { offsetInCU: 0x11EBD, offset: 0x11EBD, size: 0x8, addend: 0x0, symName: __ZNSt3__19allocatorINS_19__forward_list_nodeIP3CarPvEEE8allocateB8ue170006Em, symObjAddr: 0x60E0, symBinAddr: 0x1000080F0, symSize: 0x84 }
  - { offsetInCU: 0x11EFB, offset: 0x11EFB, size: 0x8, addend: 0x0, symName: __ZNSt3__116allocator_traitsINS_9allocatorINS_19__forward_list_nodeIP3CarPvEEEEE8max_sizeB8ue170006IS7_vEEmRKS7_, symObjAddr: 0x6164, symBinAddr: 0x100008174, symSize: 0x24 }
  - { offsetInCU: 0x11F29, offset: 0x11F29, size: 0x8, addend: 0x0, symName: __ZNKSt3__19allocatorINS_19__forward_list_nodeIP3CarPvEEE8max_sizeB8ue170006Ev, symObjAddr: 0x6188, symBinAddr: 0x100008198, symSize: 0x14 }
  - { offsetInCU: 0x11F4F, offset: 0x11F4F, size: 0x8, addend: 0x0, symName: __ZNSt3__122__allocator_destructorINS_9allocatorINS_19__forward_list_nodeIP3CarPvEEEEEC2B8ue170006ERS7_m, symObjAddr: 0x619C, symBinAddr: 0x1000081AC, symSize: 0x2C }
  - { offsetInCU: 0x11F95, offset: 0x11F95, size: 0x8, addend: 0x0, symName: __ZNSt3__110unique_ptrINS_19__forward_list_nodeIP3CarPvEENS_22__allocator_destructorINS_9allocatorIS5_EEEEEC2B8ue170006ILb1EvEEPS5_NS_16__dependent_typeINS_27__unique_ptr_deleter_sfinaeIS9_EEXT_EE20__good_rval_ref_typeE, symObjAddr: 0x61C8, symBinAddr: 0x1000081D8, symSize: 0x5C }
  - { offsetInCU: 0x11FE6, offset: 0x11FE6, size: 0x8, addend: 0x0, symName: __ZNSt3__117__compressed_pairIPNS_19__forward_list_nodeIP3CarPvEENS_22__allocator_destructorINS_9allocatorIS5_EEEEEC1B8ue170006IRS6_SA_EEOT_OT0_, symObjAddr: 0x6224, symBinAddr: 0x100008234, symSize: 0x3C }
  - { offsetInCU: 0x1203E, offset: 0x1203E, size: 0x8, addend: 0x0, symName: __ZNSt3__117__compressed_pairIPNS_19__forward_list_nodeIP3CarPvEENS_22__allocator_destructorINS_9allocatorIS5_EEEEEC2B8ue170006IRS6_SA_EEOT_OT0_, symObjAddr: 0x6260, symBinAddr: 0x100008270, symSize: 0x48 }
  - { offsetInCU: 0x12096, offset: 0x12096, size: 0x8, addend: 0x0, symName: __ZNSt3__122__compressed_pair_elemIPNS_19__forward_list_nodeIP3CarPvEELi0ELb0EEC2B8ue170006IRS6_vEEOT_, symObjAddr: 0x62A8, symBinAddr: 0x1000082B8, symSize: 0x24 }
  - { offsetInCU: 0x120D8, offset: 0x120D8, size: 0x8, addend: 0x0, symName: __ZNSt3__122__compressed_pair_elemINS_22__allocator_destructorINS_9allocatorINS_19__forward_list_nodeIP3CarPvEEEEEELi1ELb0EEC2B8ue170006IS9_vEEOT_, symObjAddr: 0x62CC, symBinAddr: 0x1000082DC, symSize: 0x24 }
  - { offsetInCU: 0x1211A, offset: 0x1211A, size: 0x8, addend: 0x0, symName: __ZNSt3__19allocatorINS_19__forward_list_nodeIP3CarPvEEE9constructB8ue170006IS3_JRKS3_EEEvPT_DpOT0_, symObjAddr: 0x62F0, symBinAddr: 0x100008300, symSize: 0x28 }
  - { offsetInCU: 0x12170, offset: 0x12170, size: 0x8, addend: 0x0, symName: __ZNKSt3__117__compressed_pairIPNS_19__forward_list_nodeIP3CarPvEENS_22__allocator_destructorINS_9allocatorIS5_EEEEE5firstB8ue170006Ev, symObjAddr: 0x6318, symBinAddr: 0x100008328, symSize: 0x24 }
  - { offsetInCU: 0x12196, offset: 0x12196, size: 0x8, addend: 0x0, symName: __ZNKSt3__122__compressed_pair_elemIPNS_19__forward_list_nodeIP3CarPvEELi0ELb0EE5__getB8ue170006Ev, symObjAddr: 0x633C, symBinAddr: 0x10000834C, symSize: 0x14 }
  - { offsetInCU: 0x121BC, offset: 0x121BC, size: 0x8, addend: 0x0, symName: __ZNSt3__117__compressed_pairIPNS_19__forward_list_nodeIP3CarPvEENS_22__allocator_destructorINS_9allocatorIS5_EEEEE5firstB8ue170006Ev, symObjAddr: 0x6350, symBinAddr: 0x100008360, symSize: 0x24 }
  - { offsetInCU: 0x121E2, offset: 0x121E2, size: 0x8, addend: 0x0, symName: __ZNSt3__122__compressed_pair_elemIPNS_19__forward_list_nodeIP3CarPvEELi0ELb0EE5__getB8ue170006Ev, symObjAddr: 0x6374, symBinAddr: 0x100008384, symSize: 0x14 }
  - { offsetInCU: 0x12208, offset: 0x12208, size: 0x8, addend: 0x0, symName: __ZNSt3__110unique_ptrINS_19__forward_list_nodeIP3CarPvEENS_22__allocator_destructorINS_9allocatorIS5_EEEEED2B8ue170006Ev, symObjAddr: 0x6388, symBinAddr: 0x100008398, symSize: 0x30 }
  - { offsetInCU: 0x12232, offset: 0x12232, size: 0x8, addend: 0x0, symName: __ZNSt3__110unique_ptrINS_19__forward_list_nodeIP3CarPvEENS_22__allocator_destructorINS_9allocatorIS5_EEEEE5resetB8ue170006EPS5_, symObjAddr: 0x63B8, symBinAddr: 0x1000083C8, symSize: 0x78 }
  - { offsetInCU: 0x12276, offset: 0x12276, size: 0x8, addend: 0x0, symName: __ZNSt3__117__compressed_pairIPNS_19__forward_list_nodeIP3CarPvEENS_22__allocator_destructorINS_9allocatorIS5_EEEEE6secondB8ue170006Ev, symObjAddr: 0x6430, symBinAddr: 0x100008440, symSize: 0x28 }
  - { offsetInCU: 0x1229C, offset: 0x1229C, size: 0x8, addend: 0x0, symName: __ZNSt3__122__allocator_destructorINS_9allocatorINS_19__forward_list_nodeIP3CarPvEEEEEclB8ue170006EPS6_, symObjAddr: 0x6458, symBinAddr: 0x100008468, symSize: 0x34 }
  - { offsetInCU: 0x122D0, offset: 0x122D0, size: 0x8, addend: 0x0, symName: __ZNSt3__122__compressed_pair_elemINS_22__allocator_destructorINS_9allocatorINS_19__forward_list_nodeIP3CarPvEEEEEELi1ELb0EE5__getB8ue170006Ev, symObjAddr: 0x648C, symBinAddr: 0x10000849C, symSize: 0x14 }
  - { offsetInCU: 0x122F6, offset: 0x122F6, size: 0x8, addend: 0x0, symName: __ZNSt3__111char_traitsIcE6lengthB8ue170006EPKc, symObjAddr: 0x6694, symBinAddr: 0x1000086A4, symSize: 0x48 }
  - { offsetInCU: 0x12337, offset: 0x12337, size: 0x8, addend: 0x0, symName: __ZNKSt3__113basic_ostreamIcNS_11char_traitsIcEEE6sentrycvbB8ue170006Ev, symObjAddr: 0x66DC, symBinAddr: 0x1000086EC, symSize: 0x1C }
  - { offsetInCU: 0x1235D, offset: 0x1235D, size: 0x8, addend: 0x0, symName: __ZNSt3__119ostreambuf_iteratorIcNS_11char_traitsIcEEEC1B8ue170006ERNS_13basic_ostreamIcS2_EE, symObjAddr: 0x6940, symBinAddr: 0x100008950, symSize: 0x34 }
  - { offsetInCU: 0x12395, offset: 0x12395, size: 0x8, addend: 0x0, symName: __ZNKSt3__18ios_base5flagsB8ue170006Ev, symObjAddr: 0x6974, symBinAddr: 0x100008984, symSize: 0x18 }
  - { offsetInCU: 0x123BD, offset: 0x123BD, size: 0x8, addend: 0x0, symName: __ZNKSt3__19basic_iosIcNS_11char_traitsIcEEE4fillB8ue170006Ev, symObjAddr: 0x698C, symBinAddr: 0x10000899C, symSize: 0x64 }
  - { offsetInCU: 0x123E5, offset: 0x123E5, size: 0x8, addend: 0x0, symName: __ZNKSt3__119ostreambuf_iteratorIcNS_11char_traitsIcEEE6failedB8ue170006Ev, symObjAddr: 0x69F0, symBinAddr: 0x100008A00, symSize: 0x24 }
  - { offsetInCU: 0x1240B, offset: 0x1240B, size: 0x8, addend: 0x0, symName: __ZNSt3__19basic_iosIcNS_11char_traitsIcEEE8setstateB8ue170006Ej, symObjAddr: 0x6A14, symBinAddr: 0x100008A24, symSize: 0x2C }
  - { offsetInCU: 0x12440, offset: 0x12440, size: 0x8, addend: 0x0, symName: __ZNKSt3__18ios_base5widthB8ue170006Ev, symObjAddr: 0x6A40, symBinAddr: 0x100008A50, symSize: 0x18 }
  - { offsetInCU: 0x12468, offset: 0x12468, size: 0x8, addend: 0x0, symName: __ZNSt3__115basic_streambufIcNS_11char_traitsIcEEE5sputnB8ue170006EPKcl, symObjAddr: 0x6A58, symBinAddr: 0x100008A68, symSize: 0x3C }
  - { offsetInCU: 0x124AA, offset: 0x124AA, size: 0x8, addend: 0x0, symName: __ZNSt3__112basic_stringIcNS_11char_traitsIcEENS_9allocatorIcEEEC1B8ue170006Emc, symObjAddr: 0x6A94, symBinAddr: 0x100008AA4, symSize: 0x3C }
  - { offsetInCU: 0x124F2, offset: 0x124F2, size: 0x8, addend: 0x0, symName: __ZNKSt3__112basic_stringIcNS_11char_traitsIcEENS_9allocatorIcEEE4dataB8ue170006Ev, symObjAddr: 0x6AD0, symBinAddr: 0x100008AE0, symSize: 0x28 }
  - { offsetInCU: 0x12518, offset: 0x12518, size: 0x8, addend: 0x0, symName: __ZNSt3__18ios_base5widthB8ue170006El, symObjAddr: 0x6AF8, symBinAddr: 0x100008B08, symSize: 0x2C }
  - { offsetInCU: 0x1255E, offset: 0x1255E, size: 0x8, addend: 0x0, symName: __ZNSt3__112basic_stringIcNS_11char_traitsIcEENS_9allocatorIcEEEC2B8ue170006Emc, symObjAddr: 0x6B24, symBinAddr: 0x100008B34, symSize: 0x4C }
  - { offsetInCU: 0x125A6, offset: 0x125A6, size: 0x8, addend: 0x0, symName: __ZNSt3__117__compressed_pairINS_12basic_stringIcNS_11char_traitsIcEENS_9allocatorIcEEE5__repES5_EC1B8ue170006INS_18__default_init_tagESA_EEOT_OT0_, symObjAddr: 0x6B70, symBinAddr: 0x100008B80, symSize: 0x3C }
  - { offsetInCU: 0x125FE, offset: 0x125FE, size: 0x8, addend: 0x0, symName: __ZNSt3__117__compressed_pairINS_12basic_stringIcNS_11char_traitsIcEENS_9allocatorIcEEE5__repES5_EC2B8ue170006INS_18__default_init_tagESA_EEOT_OT0_, symObjAddr: 0x6BAC, symBinAddr: 0x100008BBC, symSize: 0x3C }
  - { offsetInCU: 0x12656, offset: 0x12656, size: 0x8, addend: 0x0, symName: __ZNSt3__122__compressed_pair_elemINS_12basic_stringIcNS_11char_traitsIcEENS_9allocatorIcEEE5__repELi0ELb0EEC2B8ue170006ENS_18__default_init_tagE, symObjAddr: 0x6BE8, symBinAddr: 0x100008BF8, symSize: 0x14 }
  - { offsetInCU: 0x1268A, offset: 0x1268A, size: 0x8, addend: 0x0, symName: __ZNSt3__122__compressed_pair_elemINS_9allocatorIcEELi1ELb1EEC2B8ue170006ENS_18__default_init_tagE, symObjAddr: 0x6BFC, symBinAddr: 0x100008C0C, symSize: 0x2C }
  - { offsetInCU: 0x126BE, offset: 0x126BE, size: 0x8, addend: 0x0, symName: __ZNSt3__19allocatorIcEC2B8ue170006Ev, symObjAddr: 0x6C28, symBinAddr: 0x100008C38, symSize: 0x2C }
  - { offsetInCU: 0x126E8, offset: 0x126E8, size: 0x8, addend: 0x0, symName: __ZNSt3__116__non_trivial_ifILb1ENS_9allocatorIcEEEC2B8ue170006Ev, symObjAddr: 0x6C54, symBinAddr: 0x100008C64, symSize: 0x14 }
  - { offsetInCU: 0x12712, offset: 0x12712, size: 0x8, addend: 0x0, symName: __ZNKSt3__112basic_stringIcNS_11char_traitsIcEENS_9allocatorIcEEE13__get_pointerB8ue170006Ev, symObjAddr: 0x6C7C, symBinAddr: 0x100008C8C, symSize: 0x54 }
  - { offsetInCU: 0x12738, offset: 0x12738, size: 0x8, addend: 0x0, symName: __ZNKSt3__112basic_stringIcNS_11char_traitsIcEENS_9allocatorIcEEE9__is_longB8ue170006Ev, symObjAddr: 0x6CD0, symBinAddr: 0x100008CE0, symSize: 0x74 }
  - { offsetInCU: 0x1275E, offset: 0x1275E, size: 0x8, addend: 0x0, symName: __ZNKSt3__112basic_stringIcNS_11char_traitsIcEENS_9allocatorIcEEE18__get_long_pointerB8ue170006Ev, symObjAddr: 0x6D44, symBinAddr: 0x100008D54, symSize: 0x28 }
  - { offsetInCU: 0x12784, offset: 0x12784, size: 0x8, addend: 0x0, symName: __ZNKSt3__112basic_stringIcNS_11char_traitsIcEENS_9allocatorIcEEE19__get_short_pointerB8ue170006Ev, symObjAddr: 0x6D6C, symBinAddr: 0x100008D7C, symSize: 0x28 }
  - { offsetInCU: 0x127AA, offset: 0x127AA, size: 0x8, addend: 0x0, symName: __ZNKSt3__117__compressed_pairINS_12basic_stringIcNS_11char_traitsIcEENS_9allocatorIcEEE5__repES5_E5firstB8ue170006Ev, symObjAddr: 0x6D94, symBinAddr: 0x100008DA4, symSize: 0x24 }
  - { offsetInCU: 0x127D0, offset: 0x127D0, size: 0x8, addend: 0x0, symName: __ZNKSt3__122__compressed_pair_elemINS_12basic_stringIcNS_11char_traitsIcEENS_9allocatorIcEEE5__repELi0ELb0EE5__getB8ue170006Ev, symObjAddr: 0x6DB8, symBinAddr: 0x100008DC8, symSize: 0x14 }
  - { offsetInCU: 0x127F6, offset: 0x127F6, size: 0x8, addend: 0x0, symName: __ZNSt3__114pointer_traitsIPKcE10pointer_toB8ue170006ERS1_, symObjAddr: 0x6DCC, symBinAddr: 0x100008DDC, symSize: 0x14 }
  - { offsetInCU: 0x12819, offset: 0x12819, size: 0x8, addend: 0x0, symName: __ZNSt3__119ostreambuf_iteratorIcNS_11char_traitsIcEEEC2B8ue170006ERNS_13basic_ostreamIcS2_EE, symObjAddr: 0x6DE0, symBinAddr: 0x100008DF0, symSize: 0x68 }
  - { offsetInCU: 0x12851, offset: 0x12851, size: 0x8, addend: 0x0, symName: __ZNKSt3__19basic_iosIcNS_11char_traitsIcEEE5rdbufB8ue170006Ev, symObjAddr: 0x6E48, symBinAddr: 0x100008E58, symSize: 0x24 }
  - { offsetInCU: 0x12879, offset: 0x12879, size: 0x8, addend: 0x0, symName: __ZNKSt3__18ios_base5rdbufB8ue170006Ev, symObjAddr: 0x6E6C, symBinAddr: 0x100008E7C, symSize: 0x18 }
  - { offsetInCU: 0x1289F, offset: 0x1289F, size: 0x8, addend: 0x0, symName: __ZNSt3__111char_traitsIcE11eq_int_typeB8ue170006Eii, symObjAddr: 0x6E84, symBinAddr: 0x100008E94, symSize: 0x28 }
  - { offsetInCU: 0x128D2, offset: 0x128D2, size: 0x8, addend: 0x0, symName: __ZNSt3__111char_traitsIcE3eofB8ue170006Ev, symObjAddr: 0x6EAC, symBinAddr: 0x100008EBC, symSize: 0x8 }
  - { offsetInCU: 0x128E6, offset: 0x128E6, size: 0x8, addend: 0x0, symName: __ZNKSt3__19basic_iosIcNS_11char_traitsIcEEE5widenB8ue170006Ec, symObjAddr: 0x6EB4, symBinAddr: 0x100008EC4, symSize: 0x8C }
  - { offsetInCU: 0x1294A, offset: 0x1294A, size: 0x8, addend: 0x0, symName: __ZNKSt3__15ctypeIcE5widenB8ue170006Ec, symObjAddr: 0x6F6C, symBinAddr: 0x100008F7C, symSize: 0x38 }
  - { offsetInCU: 0x1297F, offset: 0x1297F, size: 0x8, addend: 0x0, symName: __ZNSt3__18ios_base8setstateB8ue170006Ej, symObjAddr: 0x6FA4, symBinAddr: 0x100008FB4, symSize: 0x34 }
  - { offsetInCU: 0x129B6, offset: 0x129B6, size: 0x8, addend: 0x0, symName: __ZNKSt3__119__forward_list_baseIP3CarNS_9allocatorIS2_EEE14__before_beginB8ue170006Ev, symObjAddr: 0x6FFC, symBinAddr: 0x10000900C, symSize: 0x28 }
  - { offsetInCU: 0x129DC, offset: 0x129DC, size: 0x8, addend: 0x0, symName: __ZNSt3__129__forward_list_const_iteratorIPNS_19__forward_list_nodeIP3CarPvEEEC1B8ue170006ES6_, symObjAddr: 0x7024, symBinAddr: 0x100009034, symSize: 0x34 }
  - { offsetInCU: 0x12A15, offset: 0x12A15, size: 0x8, addend: 0x0, symName: __ZNKSt3__117__compressed_pairINS_20__forward_begin_nodeIPNS_19__forward_list_nodeIP3CarPvEEEENS_9allocatorIS6_EEE5firstB8ue170006Ev, symObjAddr: 0x7058, symBinAddr: 0x100009068, symSize: 0x24 }
  - { offsetInCU: 0x12A3B, offset: 0x12A3B, size: 0x8, addend: 0x0, symName: __ZNKSt3__122__compressed_pair_elemINS_20__forward_begin_nodeIPNS_19__forward_list_nodeIP3CarPvEEEELi0ELb0EE5__getB8ue170006Ev, symObjAddr: 0x707C, symBinAddr: 0x10000908C, symSize: 0x14 }
  - { offsetInCU: 0x12A61, offset: 0x12A61, size: 0x8, addend: 0x0, symName: __ZNSt3__129__forward_list_const_iteratorIPNS_19__forward_list_nodeIP3CarPvEEEC2B8ue170006ES6_, symObjAddr: 0x7090, symBinAddr: 0x1000090A0, symSize: 0x5C }
  - { offsetInCU: 0x12A9A, offset: 0x12A9A, size: 0x8, addend: 0x0, symName: __ZNSt3__121__forward_node_traitsIPNS_19__forward_list_nodeIP3CarPvEEE14__as_iter_nodeB8ue170006ES6_, symObjAddr: 0x70EC, symBinAddr: 0x1000090FC, symSize: 0x14 }
  - { offsetInCU: 0x12ABE, offset: 0x12ABE, size: 0x8, addend: 0x0, symName: __ZNSt3__129__forward_list_const_iteratorIPNS_19__forward_list_nodeIP3CarPvEEEC1B8ue170006EDn, symObjAddr: 0x7100, symBinAddr: 0x100009110, symSize: 0x34 }
  - { offsetInCU: 0x12AF4, offset: 0x12AF4, size: 0x8, addend: 0x0, symName: __ZNSt3__129__forward_list_const_iteratorIPNS_19__forward_list_nodeIP3CarPvEEEC2B8ue170006EDn, symObjAddr: 0x7134, symBinAddr: 0x100009144, symSize: 0x1C }
  - { offsetInCU: 0x12B2A, offset: 0x12B2A, size: 0x8, addend: 0x0, symName: __ZNSt3__112basic_stringIcNS_11char_traitsIcEENS_9allocatorIcEEEC2B8ue170006Ev, symObjAddr: 0x7180, symBinAddr: 0x100009190, symSize: 0x3C }
  - { offsetInCU: 0x12B54, offset: 0x12B54, size: 0x8, addend: 0x0, symName: __ZNSt3__112basic_stringIcNS_11char_traitsIcEENS_9allocatorIcEEE14__default_initB8ue170006Ev, symObjAddr: 0x71BC, symBinAddr: 0x1000091CC, symSize: 0xB0 }
  - { offsetInCU: 0x12BA7, offset: 0x12BA7, size: 0x8, addend: 0x0, symName: __ZNSt3__117__compressed_pairINS_12basic_stringIcNS_11char_traitsIcEENS_9allocatorIcEEE5__repES5_E5firstB8ue170006Ev, symObjAddr: 0x726C, symBinAddr: 0x10000927C, symSize: 0x24 }
  - { offsetInCU: 0x12BCD, offset: 0x12BCD, size: 0x8, addend: 0x0, symName: __ZNSt3__112basic_stringIcNS_11char_traitsIcEENS_9allocatorIcEEE11__recommendB8ue170006Em, symObjAddr: 0x7290, symBinAddr: 0x1000092A0, symSize: 0x9C }
  - { offsetInCU: 0x12C00, offset: 0x12C00, size: 0x8, addend: 0x0, symName: __ZNSt3__116allocator_traitsINS_9allocatorIcEEE8allocateB8ue170006ERS2_m, symObjAddr: 0x732C, symBinAddr: 0x10000933C, symSize: 0x2C }
  - { offsetInCU: 0x12C33, offset: 0x12C33, size: 0x8, addend: 0x0, symName: __ZNSt3__112basic_stringIcNS_11char_traitsIcEENS_9allocatorIcEEE7__allocB8ue170006Ev, symObjAddr: 0x7358, symBinAddr: 0x100009368, symSize: 0x24 }
  - { offsetInCU: 0x12C59, offset: 0x12C59, size: 0x8, addend: 0x0, symName: __ZNSt3__112basic_stringIcNS_11char_traitsIcEENS_9allocatorIcEEE16__begin_lifetimeB8ue170006EPcm, symObjAddr: 0x737C, symBinAddr: 0x10000938C, symSize: 0x14 }
  - { offsetInCU: 0x12C8C, offset: 0x12C8C, size: 0x8, addend: 0x0, symName: __ZNSt3__112basic_stringIcNS_11char_traitsIcEENS_9allocatorIcEEE18__set_long_pointerB8ue170006EPc, symObjAddr: 0x7390, symBinAddr: 0x1000093A0, symSize: 0x38 }
  - { offsetInCU: 0x12CC1, offset: 0x12CC1, size: 0x8, addend: 0x0, symName: __ZNSt3__112basic_stringIcNS_11char_traitsIcEENS_9allocatorIcEEE14__set_long_capB8ue170006Em, symObjAddr: 0x73C8, symBinAddr: 0x1000093D8, symSize: 0x70 }
  - { offsetInCU: 0x12CF6, offset: 0x12CF6, size: 0x8, addend: 0x0, symName: __ZNSt3__112basic_stringIcNS_11char_traitsIcEENS_9allocatorIcEEE15__set_long_sizeB8ue170006Em, symObjAddr: 0x7438, symBinAddr: 0x100009448, symSize: 0x38 }
  - { offsetInCU: 0x12D2B, offset: 0x12D2B, size: 0x8, addend: 0x0, symName: __ZNSt3__122__compressed_pair_elemINS_12basic_stringIcNS_11char_traitsIcEENS_9allocatorIcEEE5__repELi0ELb0EE5__getB8ue170006Ev, symObjAddr: 0x7470, symBinAddr: 0x100009480, symSize: 0x14 }
  - { offsetInCU: 0x12D51, offset: 0x12D51, size: 0x8, addend: 0x0, symName: __ZNSt3__112basic_stringIcNS_11char_traitsIcEENS_9allocatorIcEEE10__align_itB8ue170006ILm16EEEmm, symObjAddr: 0x7484, symBinAddr: 0x100009494, symSize: 0x1C }
  - { offsetInCU: 0x12D7F, offset: 0x12D7F, size: 0x8, addend: 0x0, symName: __ZNSt3__19allocatorIcE8allocateB8ue170006Em, symObjAddr: 0x74A0, symBinAddr: 0x1000094B0, symSize: 0x84 }
  - { offsetInCU: 0x12DBD, offset: 0x12DBD, size: 0x8, addend: 0x0, symName: __ZNSt3__116allocator_traitsINS_9allocatorIcEEE8max_sizeB8ue170006IS2_vEEmRKS2_, symObjAddr: 0x7524, symBinAddr: 0x100009534, symSize: 0x24 }
  - { offsetInCU: 0x12DEB, offset: 0x12DEB, size: 0x8, addend: 0x0, symName: __ZNKSt3__19allocatorIcE8max_sizeB8ue170006Ev, symObjAddr: 0x7548, symBinAddr: 0x100009558, symSize: 0x14 }
  - { offsetInCU: 0x12E11, offset: 0x12E11, size: 0x8, addend: 0x0, symName: __ZNSt3__117__compressed_pairINS_12basic_stringIcNS_11char_traitsIcEENS_9allocatorIcEEE5__repES5_E6secondB8ue170006Ev, symObjAddr: 0x755C, symBinAddr: 0x10000956C, symSize: 0x24 }
  - { offsetInCU: 0x12E37, offset: 0x12E37, size: 0x8, addend: 0x0, symName: __ZNSt3__122__compressed_pair_elemINS_9allocatorIcEELi1ELb1EE5__getB8ue170006Ev, symObjAddr: 0x7580, symBinAddr: 0x100009590, symSize: 0x14 }
  - { offsetInCU: 0x12E7B, offset: 0x12E7B, size: 0x8, addend: 0x0, symName: __ZNKSt3__113basic_istreamIcNS_11char_traitsIcEEE6sentrycvbB8ue170006Ev, symObjAddr: 0x7594, symBinAddr: 0x1000095A4, symSize: 0x1C }
  - { offsetInCU: 0x12EA1, offset: 0x12EA1, size: 0x8, addend: 0x0, symName: __ZNSt3__112basic_stringIcNS_11char_traitsIcEENS_9allocatorIcEEE5clearB8ue170006Ev, symObjAddr: 0x75B0, symBinAddr: 0x1000095C0, symSize: 0x78 }
  - { offsetInCU: 0x12EC9, offset: 0x12EC9, size: 0x8, addend: 0x0, symName: __ZNKSt3__112basic_stringIcNS_11char_traitsIcEENS_9allocatorIcEEE8max_sizeB8ue170006Ev, symObjAddr: 0x7628, symBinAddr: 0x100009638, symSize: 0xAC }
  - { offsetInCU: 0x12F1C, offset: 0x12F1C, size: 0x8, addend: 0x0, symName: __ZNSt3__114numeric_limitsIlE3maxB8ue170006Ev, symObjAddr: 0x76D4, symBinAddr: 0x1000096E4, symSize: 0x14 }
  - { offsetInCU: 0x12F30, offset: 0x12F30, size: 0x8, addend: 0x0, symName: __ZNSt3__115basic_streambufIcNS_11char_traitsIcEEE5sgetcB8ue170006Ev, symObjAddr: 0x76E8, symBinAddr: 0x1000096F8, symSize: 0x70 }
  - { offsetInCU: 0x12F56, offset: 0x12F56, size: 0x8, addend: 0x0, symName: __ZNSt3__111char_traitsIcE12to_char_typeB8ue170006Ei, symObjAddr: 0x7758, symBinAddr: 0x100009768, symSize: 0x18 }
  - { offsetInCU: 0x12F79, offset: 0x12F79, size: 0x8, addend: 0x0, symName: __ZNKSt3__15ctypeIcE2isB8ue170006Ejc, symObjAddr: 0x7770, symBinAddr: 0x100009780, symSize: 0x7C }
  - { offsetInCU: 0x12FBD, offset: 0x12FBD, size: 0x8, addend: 0x0, symName: __ZNSt3__115basic_streambufIcNS_11char_traitsIcEEE6sbumpcB8ue170006Ev, symObjAddr: 0x77EC, symBinAddr: 0x1000097FC, symSize: 0x78 }
  - { offsetInCU: 0x12FE3, offset: 0x12FE3, size: 0x8, addend: 0x0, symName: __ZNSt3__18ios_base18__setstate_nothrowB8ue170006Ej, symObjAddr: 0x7864, symBinAddr: 0x100009874, symSize: 0x64 }
  - { offsetInCU: 0x13018, offset: 0x13018, size: 0x8, addend: 0x0, symName: __ZNKSt3__19basic_iosIcNS_11char_traitsIcEEE10exceptionsB8ue170006Ev, symObjAddr: 0x78C8, symBinAddr: 0x1000098D8, symSize: 0x24 }
  - { offsetInCU: 0x1303E, offset: 0x1303E, size: 0x8, addend: 0x0, symName: __ZNSt3__111char_traitsIcE6assignB8ue170006ERcRKc, symObjAddr: 0x78EC, symBinAddr: 0x1000098FC, symSize: 0x24 }
  - { offsetInCU: 0x1306F, offset: 0x1306F, size: 0x8, addend: 0x0, symName: __ZNSt3__112basic_stringIcNS_11char_traitsIcEENS_9allocatorIcEEE18__get_long_pointerB8ue170006Ev, symObjAddr: 0x7910, symBinAddr: 0x100009920, symSize: 0x28 }
  - { offsetInCU: 0x13095, offset: 0x13095, size: 0x8, addend: 0x0, symName: __ZNSt3__112basic_stringIcNS_11char_traitsIcEENS_9allocatorIcEEE19__get_short_pointerB8ue170006Ev, symObjAddr: 0x7938, symBinAddr: 0x100009948, symSize: 0x28 }
  - { offsetInCU: 0x130BB, offset: 0x130BB, size: 0x8, addend: 0x0, symName: __ZNSt3__112basic_stringIcNS_11char_traitsIcEENS_9allocatorIcEEE16__set_short_sizeB8ue170006Em, symObjAddr: 0x7960, symBinAddr: 0x100009970, symSize: 0x78 }
  - { offsetInCU: 0x130F0, offset: 0x130F0, size: 0x8, addend: 0x0, symName: __ZNSt3__114pointer_traitsIPcE10pointer_toB8ue170006ERc, symObjAddr: 0x79D8, symBinAddr: 0x1000099E8, symSize: 0x14 }
  - { offsetInCU: 0x13113, offset: 0x13113, size: 0x8, addend: 0x0, symName: __ZNKSt3__112basic_stringIcNS_11char_traitsIcEENS_9allocatorIcEEE7__allocB8ue170006Ev, symObjAddr: 0x79EC, symBinAddr: 0x1000099FC, symSize: 0x24 }
  - { offsetInCU: 0x13139, offset: 0x13139, size: 0x8, addend: 0x0, symName: __ZNSt3__114numeric_limitsImE3maxB8ue170006Ev, symObjAddr: 0x7A10, symBinAddr: 0x100009A20, symSize: 0x14 }
  - { offsetInCU: 0x1314D, offset: 0x1314D, size: 0x8, addend: 0x0, symName: __ZNKSt3__117__compressed_pairINS_12basic_stringIcNS_11char_traitsIcEENS_9allocatorIcEEE5__repES5_E6secondB8ue170006Ev, symObjAddr: 0x7A24, symBinAddr: 0x100009A34, symSize: 0x24 }
  - { offsetInCU: 0x13173, offset: 0x13173, size: 0x8, addend: 0x0, symName: __ZNKSt3__122__compressed_pair_elemINS_9allocatorIcEELi1ELb1EE5__getB8ue170006Ev, symObjAddr: 0x7A48, symBinAddr: 0x100009A58, symSize: 0x14 }
  - { offsetInCU: 0x13199, offset: 0x13199, size: 0x8, addend: 0x0, symName: __ZNSt3__123__libcpp_numeric_limitsImLb1EE3maxB8ue170006Ev, symObjAddr: 0x7A5C, symBinAddr: 0x100009A6C, symSize: 0x8 }
  - { offsetInCU: 0x131AD, offset: 0x131AD, size: 0x8, addend: 0x0, symName: __ZNSt3__123__libcpp_numeric_limitsIlLb1EE3maxB8ue170006Ev, symObjAddr: 0x7A64, symBinAddr: 0x100009A74, symSize: 0x8 }
  - { offsetInCU: 0x131C1, offset: 0x131C1, size: 0x8, addend: 0x0, symName: __ZNSt3__111char_traitsIcE11to_int_typeB8ue170006Ec, symObjAddr: 0x7A6C, symBinAddr: 0x100009A7C, symSize: 0x14 }
  - { offsetInCU: 0x131E4, offset: 0x131E4, size: 0x8, addend: 0x0, symName: __Z7isasciii, symObjAddr: 0x7A80, symBinAddr: 0x100009A90, symSize: 0x24 }
  - { offsetInCU: 0x13211, offset: 0x13211, size: 0x8, addend: 0x0, symName: __ZNKSt3__18ios_base10exceptionsB8ue170006Ev, symObjAddr: 0x7AA4, symBinAddr: 0x100009AB4, symSize: 0x18 }
  - { offsetInCU: 0x13239, offset: 0x13239, size: 0x8, addend: 0x0, symName: __ZNSt3__123__forward_list_iteratorIPNS_19__forward_list_nodeIP3CarPvEEEC1B8ue170006ES6_, symObjAddr: 0x7ABC, symBinAddr: 0x100009ACC, symSize: 0x34 }
  - { offsetInCU: 0x13272, offset: 0x13272, size: 0x8, addend: 0x0, symName: __ZNSt3__123__forward_list_iteratorIPNS_19__forward_list_nodeIP3CarPvEEEC2B8ue170006ES6_, symObjAddr: 0x7AF0, symBinAddr: 0x100009B00, symSize: 0x3C }
  - { offsetInCU: 0x132AB, offset: 0x132AB, size: 0x8, addend: 0x0, symName: __ZNSt3__123__forward_list_iteratorIPNS_19__forward_list_nodeIP3CarPvEEEC1B8ue170006EDn, symObjAddr: 0x7B2C, symBinAddr: 0x100009B3C, symSize: 0x34 }
  - { offsetInCU: 0x132E1, offset: 0x132E1, size: 0x8, addend: 0x0, symName: __ZNSt3__123__forward_list_iteratorIPNS_19__forward_list_nodeIP3CarPvEEEC2B8ue170006EDn, symObjAddr: 0x7B60, symBinAddr: 0x100009B70, symSize: 0x1C }
  - { offsetInCU: 0x13317, offset: 0x13317, size: 0x8, addend: 0x0, symName: __ZNKSt3__123__forward_list_iteratorIPNS_19__forward_list_nodeIP3CarPvEEE25__get_unsafe_node_pointerB8ue170006Ev, symObjAddr: 0x7B7C, symBinAddr: 0x100009B8C, symSize: 0x18 }
  - { offsetInCU: 0x1333D, offset: 0x1333D, size: 0x8, addend: 0x0, symName: __ZNSt3__111char_traitsIcE7compareB8ue170006EPKcS3_m, symObjAddr: 0x7B94, symBinAddr: 0x100009BA4, symSize: 0x64 }
  - { offsetInCU: 0x1337C, offset: 0x1337C, size: 0x8, addend: 0x0, symName: __ZNSt3__112forward_listIP8CustomerNS_9allocatorIS2_EEEC2B8ue170006Ev, symObjAddr: 0x7BF8, symBinAddr: 0x100009C08, symSize: 0x2C }
  - { offsetInCU: 0x133A6, offset: 0x133A6, size: 0x8, addend: 0x0, symName: __ZNSt3__119__forward_list_baseIP8CustomerNS_9allocatorIS2_EEEC2B8ue170006Ev, symObjAddr: 0x7C24, symBinAddr: 0x100009C34, symSize: 0x44 }
  - { offsetInCU: 0x133D0, offset: 0x133D0, size: 0x8, addend: 0x0, symName: __ZNSt3__120__forward_begin_nodeIPNS_19__forward_list_nodeIP8CustomerPvEEEC1B8ue170006Ev, symObjAddr: 0x7C68, symBinAddr: 0x100009C78, symSize: 0x2C }
  - { offsetInCU: 0x133FF, offset: 0x133FF, size: 0x8, addend: 0x0, symName: __ZNSt3__117__compressed_pairINS_20__forward_begin_nodeIPNS_19__forward_list_nodeIP8CustomerPvEEEENS_9allocatorIS6_EEEC1B8ue170006IS8_NS_18__default_init_tagEEEOT_OT0_, symObjAddr: 0x7C94, symBinAddr: 0x100009CA4, symSize: 0x3C }
  - { offsetInCU: 0x13457, offset: 0x13457, size: 0x8, addend: 0x0, symName: __ZNSt3__120__forward_begin_nodeIPNS_19__forward_list_nodeIP8CustomerPvEEEC2B8ue170006Ev, symObjAddr: 0x7CD0, symBinAddr: 0x100009CE0, symSize: 0x18 }
  - { offsetInCU: 0x13481, offset: 0x13481, size: 0x8, addend: 0x0, symName: __ZNSt3__117__compressed_pairINS_20__forward_begin_nodeIPNS_19__forward_list_nodeIP8CustomerPvEEEENS_9allocatorIS6_EEEC2B8ue170006IS8_NS_18__default_init_tagEEEOT_OT0_, symObjAddr: 0x7CE8, symBinAddr: 0x100009CF8, symSize: 0x40 }
  - { offsetInCU: 0x134D9, offset: 0x134D9, size: 0x8, addend: 0x0, symName: __ZNSt3__122__compressed_pair_elemINS_20__forward_begin_nodeIPNS_19__forward_list_nodeIP8CustomerPvEEEELi0ELb0EEC2B8ue170006IS8_vEEOT_, symObjAddr: 0x7D28, symBinAddr: 0x100009D38, symSize: 0x24 }
  - { offsetInCU: 0x1351B, offset: 0x1351B, size: 0x8, addend: 0x0, symName: __ZNSt3__122__compressed_pair_elemINS_9allocatorINS_19__forward_list_nodeIP8CustomerPvEEEELi1ELb1EEC2B8ue170006ENS_18__default_init_tagE, symObjAddr: 0x7D4C, symBinAddr: 0x100009D5C, symSize: 0x2C }
  - { offsetInCU: 0x1354F, offset: 0x1354F, size: 0x8, addend: 0x0, symName: __ZNSt3__19allocatorINS_19__forward_list_nodeIP8CustomerPvEEEC2B8ue170006Ev, symObjAddr: 0x7D78, symBinAddr: 0x100009D88, symSize: 0x2C }
  - { offsetInCU: 0x13579, offset: 0x13579, size: 0x8, addend: 0x0, symName: __ZNSt3__116__non_trivial_ifILb1ENS_9allocatorINS_19__forward_list_nodeIP8CustomerPvEEEEEC2B8ue170006Ev, symObjAddr: 0x7DA4, symBinAddr: 0x100009DB4, symSize: 0x14 }
  - { offsetInCU: 0x135A3, offset: 0x135A3, size: 0x8, addend: 0x0, symName: __ZNSt3__19basic_iosIcNS_11char_traitsIcEEEC2B8ue170006Ev, symObjAddr: 0x7DB8, symBinAddr: 0x100009DC8, symSize: 0x44 }
  - { offsetInCU: 0x135CD, offset: 0x135CD, size: 0x8, addend: 0x0, symName: __ZNSt3__113basic_istreamIcNS_11char_traitsIcEEEC2B8ue170006EPNS_15basic_streambufIcS2_EE, symObjAddr: 0x7DFC, symBinAddr: 0x100009E0C, symSize: 0x64 }
  - { offsetInCU: 0x13612, offset: 0x13612, size: 0x8, addend: 0x0, symName: __ZNSt3__18ios_baseC2B8ue170006Ev, symObjAddr: 0x7E60, symBinAddr: 0x100009E70, symSize: 0x24 }
  - { offsetInCU: 0x1363C, offset: 0x1363C, size: 0x8, addend: 0x0, symName: __ZNSt3__19basic_iosIcNS_11char_traitsIcEEE4initB8ue170006EPNS_15basic_streambufIcS2_EE, symObjAddr: 0x7E84, symBinAddr: 0x100009E94, symSize: 0x44 }
  - { offsetInCU: 0x13673, offset: 0x13673, size: 0x8, addend: 0x0, symName: __ZNKSt3__113basic_filebufIcNS_11char_traitsIcEEE7is_openEv, symObjAddr: 0x7EC8, symBinAddr: 0x100009ED8, symSize: 0x24 }
  - { offsetInCU: 0x1369B, offset: 0x1369B, size: 0x8, addend: 0x0, symName: __ZNKSt3__19basic_iosIcNS_11char_traitsIcEEE4failB8ue170006Ev, symObjAddr: 0x7EEC, symBinAddr: 0x100009EFC, symSize: 0x28 }
  - { offsetInCU: 0x136C1, offset: 0x136C1, size: 0x8, addend: 0x0, symName: __ZNKSt3__18ios_base4failB8ue170006Ev, symObjAddr: 0x7F14, symBinAddr: 0x100009F24, symSize: 0x28 }
  - { offsetInCU: 0x136E9, offset: 0x136E9, size: 0x8, addend: 0x0, symName: __ZNKSt3__112basic_stringIcNS_11char_traitsIcEENS_9allocatorIcEEE15__get_long_sizeB8ue170006Ev, symObjAddr: 0x7F3C, symBinAddr: 0x100009F4C, symSize: 0x28 }
  - { offsetInCU: 0x1370F, offset: 0x1370F, size: 0x8, addend: 0x0, symName: __ZNKSt3__112basic_stringIcNS_11char_traitsIcEENS_9allocatorIcEEE16__get_short_sizeB8ue170006Ev, symObjAddr: 0x7F64, symBinAddr: 0x100009F74, symSize: 0x34 }
  - { offsetInCU: 0x13735, offset: 0x13735, size: 0x8, addend: 0x0, symName: __ZNSt3__112basic_stringIcNS_11char_traitsIcEENS_9allocatorIcEEE13__get_pointerB8ue170006Ev, symObjAddr: 0x7F98, symBinAddr: 0x100009FA8, symSize: 0x54 }
  - { offsetInCU: 0x1375B, offset: 0x1375B, size: 0x8, addend: 0x0, symName: __ZNSt3__114basic_iostreamIcNS_11char_traitsIcEEEC2B8ue170006EPNS_15basic_streambufIcS2_EE, symObjAddr: 0x7FEC, symBinAddr: 0x100009FFC, symSize: 0xB4 }
  - { offsetInCU: 0x137A1, offset: 0x137A1, size: 0x8, addend: 0x0, symName: __ZNSt3__115basic_stringbufIcNS_11char_traitsIcEENS_9allocatorIcEEEC1B8ue170006ERKNS_12basic_stringIcS2_S4_EEj, symObjAddr: 0x80A0, symBinAddr: 0x10000A0B0, symSize: 0x3C }
  - { offsetInCU: 0x137E9, offset: 0x137E9, size: 0x8, addend: 0x0, symName: __ZNSt3__113basic_ostreamIcNS_11char_traitsIcEEEC2B8ue170006Ev, symObjAddr: 0x80DC, symBinAddr: 0x10000A0EC, symSize: 0x34 }
  - { offsetInCU: 0x13820, offset: 0x13820, size: 0x8, addend: 0x0, symName: __ZNSt3__115basic_stringbufIcNS_11char_traitsIcEENS_9allocatorIcEEEC2B8ue170006ERKNS_12basic_stringIcS2_S4_EEj, symObjAddr: 0x8110, symBinAddr: 0x10000A120, symSize: 0xD8 }
  - { offsetInCU: 0x13868, offset: 0x13868, size: 0x8, addend: 0x0, symName: __ZNKSt3__112basic_stringIcNS_11char_traitsIcEENS_9allocatorIcEEE13get_allocatorB8ue170006Ev, symObjAddr: 0x81E8, symBinAddr: 0x10000A1F8, symSize: 0x24 }
  - { offsetInCU: 0x1388E, offset: 0x1388E, size: 0x8, addend: 0x0, symName: __ZNSt3__112basic_stringIcNS_11char_traitsIcEENS_9allocatorIcEEEC1B8ue170006ERKS4_, symObjAddr: 0x820C, symBinAddr: 0x10000A21C, symSize: 0x34 }
  - { offsetInCU: 0x138C7, offset: 0x138C7, size: 0x8, addend: 0x0, symName: __ZNSt3__112basic_stringIcNS_11char_traitsIcEENS_9allocatorIcEEEC2B8ue170006ERKS4_, symObjAddr: 0x8240, symBinAddr: 0x10000A250, symSize: 0x40 }
  - { offsetInCU: 0x13900, offset: 0x13900, size: 0x8, addend: 0x0, symName: __ZNSt3__117__compressed_pairINS_12basic_stringIcNS_11char_traitsIcEENS_9allocatorIcEEE5__repES5_EC1B8ue170006INS_18__default_init_tagERKS5_EEOT_OT0_, symObjAddr: 0x8280, symBinAddr: 0x10000A290, symSize: 0x3C }
  - { offsetInCU: 0x13958, offset: 0x13958, size: 0x8, addend: 0x0, symName: __ZNSt3__117__compressed_pairINS_12basic_stringIcNS_11char_traitsIcEENS_9allocatorIcEEE5__repES5_EC2B8ue170006INS_18__default_init_tagERKS5_EEOT_OT0_, symObjAddr: 0x82BC, symBinAddr: 0x10000A2CC, symSize: 0x40 }
  - { offsetInCU: 0x139B0, offset: 0x139B0, size: 0x8, addend: 0x0, symName: __ZNSt3__122__compressed_pair_elemINS_9allocatorIcEELi1ELb1EEC2B8ue170006IRKS2_vEEOT_, symObjAddr: 0x82FC, symBinAddr: 0x10000A30C, symSize: 0x18 }
  - { offsetInCU: 0x139F2, offset: 0x139F2, size: 0x8, addend: 0x0, symName: __ZNSt3__111char_traitsIcE2eqEcc, symObjAddr: 0x8314, symBinAddr: 0x10000A324, symSize: 0x28 }
  - { offsetInCU: 0x13A23, offset: 0x13A23, size: 0x8, addend: 0x0, symName: __ZNKSt3__119__forward_list_baseIP8CustomerNS_9allocatorIS2_EEE14__before_beginB8ue170006Ev, symObjAddr: 0x833C, symBinAddr: 0x10000A34C, symSize: 0x28 }
  - { offsetInCU: 0x13A49, offset: 0x13A49, size: 0x8, addend: 0x0, symName: __ZNKSt3__117__compressed_pairINS_20__forward_begin_nodeIPNS_19__forward_list_nodeIP8CustomerPvEEEENS_9allocatorIS6_EEE5firstB8ue170006Ev, symObjAddr: 0x8364, symBinAddr: 0x10000A374, symSize: 0x24 }
  - { offsetInCU: 0x13A6F, offset: 0x13A6F, size: 0x8, addend: 0x0, symName: __ZNKSt3__122__compressed_pair_elemINS_20__forward_begin_nodeIPNS_19__forward_list_nodeIP8CustomerPvEEEELi0ELb0EE5__getB8ue170006Ev, symObjAddr: 0x8388, symBinAddr: 0x10000A398, symSize: 0x14 }
  - { offsetInCU: 0x13A95, offset: 0x13A95, size: 0x8, addend: 0x0, symName: __ZNSt3__123__forward_list_iteratorIPNS_19__forward_list_nodeIP8CustomerPvEEEC1B8ue170006ES6_, symObjAddr: 0x839C, symBinAddr: 0x10000A3AC, symSize: 0x34 }
  - { offsetInCU: 0x13ACE, offset: 0x13ACE, size: 0x8, addend: 0x0, symName: __ZNSt3__123__forward_list_iteratorIPNS_19__forward_list_nodeIP8CustomerPvEEEC2B8ue170006ES6_, symObjAddr: 0x83D0, symBinAddr: 0x10000A3E0, symSize: 0x5C }
  - { offsetInCU: 0x13B07, offset: 0x13B07, size: 0x8, addend: 0x0, symName: __ZNSt3__121__forward_node_traitsIPNS_19__forward_list_nodeIP8CustomerPvEEE14__as_iter_nodeB8ue170006ES6_, symObjAddr: 0x842C, symBinAddr: 0x10000A43C, symSize: 0x14 }
  - { offsetInCU: 0x13B2B, offset: 0x13B2B, size: 0x8, addend: 0x0, symName: __ZNSt3__123__forward_list_iteratorIPNS_19__forward_list_nodeIP8CustomerPvEEEC1B8ue170006EDn, symObjAddr: 0x8440, symBinAddr: 0x10000A450, symSize: 0x34 }
  - { offsetInCU: 0x13B61, offset: 0x13B61, size: 0x8, addend: 0x0, symName: __ZNSt3__123__forward_list_iteratorIPNS_19__forward_list_nodeIP8CustomerPvEEEC2B8ue170006EDn, symObjAddr: 0x8474, symBinAddr: 0x10000A484, symSize: 0x1C }
  - { offsetInCU: 0x13B97, offset: 0x13B97, size: 0x8, addend: 0x0, symName: __ZNKSt3__123__forward_list_iteratorIPNS_19__forward_list_nodeIP8CustomerPvEEE25__get_unsafe_node_pointerB8ue170006Ev, symObjAddr: 0x84C0, symBinAddr: 0x10000A4D0, symSize: 0x18 }
  - { offsetInCU: 0x13BBD, offset: 0x13BBD, size: 0x8, addend: 0x0, symName: __ZNSt3__129__forward_list_const_iteratorIPNS_19__forward_list_nodeIP8CustomerPvEEEC1B8ue170006ES6_, symObjAddr: 0x84D8, symBinAddr: 0x10000A4E8, symSize: 0x34 }
  - { offsetInCU: 0x13BF6, offset: 0x13BF6, size: 0x8, addend: 0x0, symName: __ZNSt3__129__forward_list_const_iteratorIPNS_19__forward_list_nodeIP8CustomerPvEEEC2B8ue170006ES6_, symObjAddr: 0x850C, symBinAddr: 0x10000A51C, symSize: 0x3C }
  - { offsetInCU: 0x13C2F, offset: 0x13C2F, size: 0x8, addend: 0x0, symName: __ZNSt3__129__forward_list_const_iteratorIPNS_19__forward_list_nodeIP8CustomerPvEEEC1B8ue170006EDn, symObjAddr: 0x8548, symBinAddr: 0x10000A558, symSize: 0x34 }
  - { offsetInCU: 0x13C65, offset: 0x13C65, size: 0x8, addend: 0x0, symName: __ZNSt3__129__forward_list_const_iteratorIPNS_19__forward_list_nodeIP8CustomerPvEEEC2B8ue170006EDn, symObjAddr: 0x857C, symBinAddr: 0x10000A58C, symSize: 0x1C }
  - { offsetInCU: 0x13C9B, offset: 0x13C9B, size: 0x8, addend: 0x0, symName: __ZNKSt3__129__forward_list_const_iteratorIPNS_19__forward_list_nodeIP8CustomerPvEEE25__get_unsafe_node_pointerB8ue170006Ev, symObjAddr: 0x85C8, symBinAddr: 0x10000A5D8, symSize: 0x18 }
  - { offsetInCU: 0x13CC1, offset: 0x13CC1, size: 0x8, addend: 0x0, symName: __ZNSt3__116allocator_traitsINS_9allocatorINS_19__forward_list_nodeIP8CustomerPvEEEEE8allocateB8ue170006ERS7_m, symObjAddr: 0x85E0, symBinAddr: 0x10000A5F0, symSize: 0x2C }
  - { offsetInCU: 0x13CF9, offset: 0x13CF9, size: 0x8, addend: 0x0, symName: __ZNSt3__122__allocator_destructorINS_9allocatorINS_19__forward_list_nodeIP8CustomerPvEEEEEC1B8ue170006ERS7_m, symObjAddr: 0x860C, symBinAddr: 0x10000A61C, symSize: 0x3C }
  - { offsetInCU: 0x13DD0, offset: 0x13DD0, size: 0x8, addend: 0x0, symName: __ZNSt3__110unique_ptrINS_19__forward_list_nodeIP8CustomerPvEENS_22__allocator_destructorINS_9allocatorIS5_EEEEEC1B8ue170006ILb1EvEEPS5_NS_16__dependent_typeINS_27__unique_ptr_deleter_sfinaeIS9_EEXT_EE20__good_rval_ref_typeE, symObjAddr: 0x8648, symBinAddr: 0x10000A658, symSize: 0x3C }
  - { offsetInCU: 0x13E21, offset: 0x13E21, size: 0x8, addend: 0x0, symName: __ZNSt3__116allocator_traitsINS_9allocatorINS_19__forward_list_nodeIP8CustomerPvEEEEE9constructB8ue170006IS4_JRKS4_EvEEvRS7_PT_DpOT0_, symObjAddr: 0x8684, symBinAddr: 0x10000A694, symSize: 0x34 }
  - { offsetInCU: 0x13E78, offset: 0x13E78, size: 0x8, addend: 0x0, symName: __ZNKSt3__110unique_ptrINS_19__forward_list_nodeIP8CustomerPvEENS_22__allocator_destructorINS_9allocatorIS5_EEEEEptB8ue170006Ev, symObjAddr: 0x86B8, symBinAddr: 0x10000A6C8, symSize: 0x28 }
  - { offsetInCU: 0x13E9E, offset: 0x13E9E, size: 0x8, addend: 0x0, symName: __ZNSt3__110unique_ptrINS_19__forward_list_nodeIP8CustomerPvEENS_22__allocator_destructorINS_9allocatorIS5_EEEEE7releaseB8ue170006Ev, symObjAddr: 0x86E0, symBinAddr: 0x10000A6F0, symSize: 0x44 }
  - { offsetInCU: 0x13ED3, offset: 0x13ED3, size: 0x8, addend: 0x0, symName: __ZNSt3__110unique_ptrINS_19__forward_list_nodeIP8CustomerPvEENS_22__allocator_destructorINS_9allocatorIS5_EEEEED1B8ue170006Ev, symObjAddr: 0x8724, symBinAddr: 0x10000A734, symSize: 0x2C }
  - { offsetInCU: 0x13EFD, offset: 0x13EFD, size: 0x8, addend: 0x0, symName: __ZNSt3__19allocatorINS_19__forward_list_nodeIP8CustomerPvEEE8allocateB8ue170006Em, symObjAddr: 0x8750, symBinAddr: 0x10000A760, symSize: 0x84 }
  - { offsetInCU: 0x13F3B, offset: 0x13F3B, size: 0x8, addend: 0x0, symName: __ZNSt3__116allocator_traitsINS_9allocatorINS_19__forward_list_nodeIP8CustomerPvEEEEE8max_sizeB8ue170006IS7_vEEmRKS7_, symObjAddr: 0x87D4, symBinAddr: 0x10000A7E4, symSize: 0x24 }
  - { offsetInCU: 0x13F69, offset: 0x13F69, size: 0x8, addend: 0x0, symName: __ZNKSt3__19allocatorINS_19__forward_list_nodeIP8CustomerPvEEE8max_sizeB8ue170006Ev, symObjAddr: 0x87F8, symBinAddr: 0x10000A808, symSize: 0x14 }
  - { offsetInCU: 0x13F8F, offset: 0x13F8F, size: 0x8, addend: 0x0, symName: __ZNSt3__122__allocator_destructorINS_9allocatorINS_19__forward_list_nodeIP8CustomerPvEEEEEC2B8ue170006ERS7_m, symObjAddr: 0x880C, symBinAddr: 0x10000A81C, symSize: 0x2C }
  - { offsetInCU: 0x13FD5, offset: 0x13FD5, size: 0x8, addend: 0x0, symName: __ZNSt3__110unique_ptrINS_19__forward_list_nodeIP8CustomerPvEENS_22__allocator_destructorINS_9allocatorIS5_EEEEEC2B8ue170006ILb1EvEEPS5_NS_16__dependent_typeINS_27__unique_ptr_deleter_sfinaeIS9_EEXT_EE20__good_rval_ref_typeE, symObjAddr: 0x8838, symBinAddr: 0x10000A848, symSize: 0x5C }
  - { offsetInCU: 0x14026, offset: 0x14026, size: 0x8, addend: 0x0, symName: __ZNSt3__117__compressed_pairIPNS_19__forward_list_nodeIP8CustomerPvEENS_22__allocator_destructorINS_9allocatorIS5_EEEEEC1B8ue170006IRS6_SA_EEOT_OT0_, symObjAddr: 0x8894, symBinAddr: 0x10000A8A4, symSize: 0x3C }
  - { offsetInCU: 0x1407E, offset: 0x1407E, size: 0x8, addend: 0x0, symName: __ZNSt3__117__compressed_pairIPNS_19__forward_list_nodeIP8CustomerPvEENS_22__allocator_destructorINS_9allocatorIS5_EEEEEC2B8ue170006IRS6_SA_EEOT_OT0_, symObjAddr: 0x88D0, symBinAddr: 0x10000A8E0, symSize: 0x48 }
  - { offsetInCU: 0x140D6, offset: 0x140D6, size: 0x8, addend: 0x0, symName: __ZNSt3__122__compressed_pair_elemIPNS_19__forward_list_nodeIP8CustomerPvEELi0ELb0EEC2B8ue170006IRS6_vEEOT_, symObjAddr: 0x8918, symBinAddr: 0x10000A928, symSize: 0x24 }
  - { offsetInCU: 0x14118, offset: 0x14118, size: 0x8, addend: 0x0, symName: __ZNSt3__122__compressed_pair_elemINS_22__allocator_destructorINS_9allocatorINS_19__forward_list_nodeIP8CustomerPvEEEEEELi1ELb0EEC2B8ue170006IS9_vEEOT_, symObjAddr: 0x893C, symBinAddr: 0x10000A94C, symSize: 0x24 }
  - { offsetInCU: 0x1415A, offset: 0x1415A, size: 0x8, addend: 0x0, symName: __ZNSt3__19allocatorINS_19__forward_list_nodeIP8CustomerPvEEE9constructB8ue170006IS3_JRKS3_EEEvPT_DpOT0_, symObjAddr: 0x8960, symBinAddr: 0x10000A970, symSize: 0x28 }
  - { offsetInCU: 0x141B0, offset: 0x141B0, size: 0x8, addend: 0x0, symName: __ZNKSt3__117__compressed_pairIPNS_19__forward_list_nodeIP8CustomerPvEENS_22__allocator_destructorINS_9allocatorIS5_EEEEE5firstB8ue170006Ev, symObjAddr: 0x8988, symBinAddr: 0x10000A998, symSize: 0x24 }
  - { offsetInCU: 0x141D6, offset: 0x141D6, size: 0x8, addend: 0x0, symName: __ZNKSt3__122__compressed_pair_elemIPNS_19__forward_list_nodeIP8CustomerPvEELi0ELb0EE5__getB8ue170006Ev, symObjAddr: 0x89AC, symBinAddr: 0x10000A9BC, symSize: 0x14 }
  - { offsetInCU: 0x141FC, offset: 0x141FC, size: 0x8, addend: 0x0, symName: __ZNSt3__117__compressed_pairIPNS_19__forward_list_nodeIP8CustomerPvEENS_22__allocator_destructorINS_9allocatorIS5_EEEEE5firstB8ue170006Ev, symObjAddr: 0x89C0, symBinAddr: 0x10000A9D0, symSize: 0x24 }
  - { offsetInCU: 0x14222, offset: 0x14222, size: 0x8, addend: 0x0, symName: __ZNSt3__122__compressed_pair_elemIPNS_19__forward_list_nodeIP8CustomerPvEELi0ELb0EE5__getB8ue170006Ev, symObjAddr: 0x89E4, symBinAddr: 0x10000A9F4, symSize: 0x14 }
  - { offsetInCU: 0x14248, offset: 0x14248, size: 0x8, addend: 0x0, symName: __ZNSt3__110unique_ptrINS_19__forward_list_nodeIP8CustomerPvEENS_22__allocator_destructorINS_9allocatorIS5_EEEEED2B8ue170006Ev, symObjAddr: 0x89F8, symBinAddr: 0x10000AA08, symSize: 0x30 }
  - { offsetInCU: 0x14272, offset: 0x14272, size: 0x8, addend: 0x0, symName: __ZNSt3__110unique_ptrINS_19__forward_list_nodeIP8CustomerPvEENS_22__allocator_destructorINS_9allocatorIS5_EEEEE5resetB8ue170006EPS5_, symObjAddr: 0x8A28, symBinAddr: 0x10000AA38, symSize: 0x78 }
  - { offsetInCU: 0x142B6, offset: 0x142B6, size: 0x8, addend: 0x0, symName: __ZNSt3__117__compressed_pairIPNS_19__forward_list_nodeIP8CustomerPvEENS_22__allocator_destructorINS_9allocatorIS5_EEEEE6secondB8ue170006Ev, symObjAddr: 0x8AA0, symBinAddr: 0x10000AAB0, symSize: 0x28 }
  - { offsetInCU: 0x142DC, offset: 0x142DC, size: 0x8, addend: 0x0, symName: __ZNSt3__122__allocator_destructorINS_9allocatorINS_19__forward_list_nodeIP8CustomerPvEEEEEclB8ue170006EPS6_, symObjAddr: 0x8AC8, symBinAddr: 0x10000AAD8, symSize: 0x34 }
  - { offsetInCU: 0x14310, offset: 0x14310, size: 0x8, addend: 0x0, symName: __ZNSt3__122__compressed_pair_elemINS_22__allocator_destructorINS_9allocatorINS_19__forward_list_nodeIP8CustomerPvEEEEEELi1ELb0EE5__getB8ue170006Ev, symObjAddr: 0x8AFC, symBinAddr: 0x10000AB0C, symSize: 0x14 }
...
